Microchip MPLAB XC8 Compiler V1.34 ()

Linker command line:

-W-1 --edf=C:\Program Files (x86)\Microchip\xc8\v1.34\dat\en_msgs.txt -cs \
  -h+dist/xc8_pic18f26k20/production\PIC_IR_RF_Bluetooth_Home_Automation.production.sym \
  --cmf=dist/xc8_pic18f26k20/production\PIC_IR_RF_Bluetooth_Home_Automation.production.cmf \
  -z -Q18F26K20 -oC:\Users\DWHITF~1\AppData\Local\Temp\s5ck.6 \
  -Mdist/xc8_pic18f26k20/production/PIC_IR_RF_Bluetooth_Home_Automation.production.map \
  -E1 -ver=XC8 -ASTACK=06C8h-0f5fh -pstack=STACK -ACODE=00h-0FFFFh \
  -ACONST=00h-0FFFFh -ASMALLCONST=01000h-010FFhx240 \
  -AMEDIUMCONST=01000h-0FFFFh -ACOMRAM=01h-05Fh -AABS1=00h-0F5Fh \
  -ABIGRAM=01h-0F5Fh -ARAM=060h-0FFh,0100h-01FFhx14,0F00h-0F5Fh \
  -ABANK0=060h-0FFh -ABANK1=0100h-01FFh -ABANK2=0200h-02FFh \
  -ABANK3=0300h-03FFh -ABANK4=0400h-04FFh -ABANK5=0500h-05FFh \
  -ABANK6=0600h-06FFh -ABANK7=0700h-07FFh -ABANK8=0800h-08FFh \
  -ABANK9=0900h-09FFh -ABANK10=0A00h-0AFFh -ABANK11=0B00h-0BFFh \
  -ABANK12=0C00h-0CFFh -ABANK13=0D00h-0DFFh -ABANK14=0E00h-0EFFh \
  -ABANK15=0F00h-0F5Fh -ASFR=0F60h-0FFFh \
  -preset_vec=00h,intcode=08h,intcodelo=018h,powerup,init,end_init \
  -pramtop=01000h -psmallconst=SMALLCONST -pmediumconst=MEDIUMCONST \
  -pconst=CONST -AFARRAM=00h-00h -ACONFIG=0300000h-030000Dh -pconfig=CONFIG \
  -AIDLOC=0200000h-0200007h -pidloc=IDLOC -AEEDATA=0F00000h-0F003FFh \
  -peeprom_data=EEDATA \
  -prdata=COMRAM,nvrram=COMRAM,nvbit=COMRAM,rbss=COMRAM,rbit=COMRAM \
  -pfarbss=FARRAM,fardata=FARRAM,nvFARRAM=FARRAM \
  -pintsave_regs=BIGRAM,bigbss=BIGRAM,bigdata=BIGRAM -pbss=RAM \
  -pidata=CODE,irdata=CODE,ibigdata=CODE,ifardata=CODE -prparam=COMRAM \
  C:\Users\DWHITF~1\AppData\Local\Temp\s5ck.obj \
  dist/xc8_pic18f26k20/production\PIC_IR_RF_Bluetooth_Home_Automation.production.obj 

Object code version is 3.11

Machine type is 18F26K20

Call graph: (short form)




                Name                               Link     Load   Length Selector   Space Scale
C:\Users\DWHITF~1\AppData\Local\Temp\s5ck.obj
                end_init                            1CC      1CC        4        C       0
                reset_vec                             0        0        4        0       0
                idloc                            200000   200000        8   200000       0
                config                           300000   300000        E   300000       0
dist/xc8_pic18f26k20/production\PIC_IR_RF_Bluetooth_Home_Automation.production.obj
                intcodelo                            18       18      1B4        C       0
                intcode                               8        8       10        4       0
                mediumconst                        EB4A     EB4A     14B6     75A5       0
                text126                            6E6A     6E6A      32C        C       0
                text125                            B4D6     B4D6        A        C       0
                text124                            B4CC     B4CC        A        C       0
                text123                            B496     B496        E        C       0
                text122                            B4C2     B4C2        A        C       0
                text121                            AE58     AE58       42        C       0
                intcode_body                       544C     544C      624        C       0
                text119                            AED8     AED8       3E        C       0
                text118                            B1F0     B1F0       2E        C       0
                text117                            B2C8     B2C8       28        C       0
                text116                            B34C     B34C       18        C       0
                text115                            B488     B488        E        C       0
                text114                            B390     B390       16        C       0
                text113                            B2F0     B2F0       26        C       0
                text112                            B130     B130       32        C       0
                text111                            B192     B192       30        C       0
                text109                            B4EC     B4EC        2        C       0
                text108                            ADD2     ADD2       44        C       0
                text107                            B3BA     B3BA       14        C       0
                text106                            B47A     B47A        E        C       0
                text105                            B37A     B37A       16        C       0
                text104                            B404     B404       12        C       0
                text103                            AB9A     AB9A       5A        C       0
                text102                            A704     A704       8A        C       0
                text101                            B46C     B46C        E        C       0
                text100                            B334     B334       18        C       0
                text99                             B3F2     B3F2       12        C       0
                text98                             AC4C     AC4C       56        C       0
                text97                             997A     997A       E2        C       0
                text96                             8E86     8E86      13A        C       0
                text95                             AF50     AF50       3A        C       0
                text94                             B0FE     B0FE       32        C       0
                text93                             9DA6     9DA6       CE        C       0
                text92                             B162     B162       30        C       0
                text91                             90EC     90EC      120        C       0
                text90                             7748     7748      27E        C       0
                text89                             ACF6     ACF6       50        C       0
                text88                             8BE6     8BE6      152        C       0
                text87                             9F3E     9F3E       C6        C       0
                text86                             A21C     A21C       A4        C       0
                text85                             A816     A816       80        C       0
                text84                             8340     8340      194        C       0
                text83                             819A     819A      1A6        C       0
                text82                             9C08     9C08       D0        C       0
                text81                             A0BA     A0BA       B4        C       0
                text80                             87CC     87CC      16C        C       0
                text79                             AFC2     AFC2       38        C       0
                text78                             7470     7470      2D8        C       0
                text77                             B1C2     B1C2       2E        C       0
                text76                             6082     6082      504        C       0
                text75                             306E     306E      F7A        C       0
                text74                             8938     8938      15C        C       0
                text73                             B24A     B24A       2C        C       0
                text72                             7FEC     7FEC      1AE        C       0
                text71                             B030     B030       36        C       0
                text70                             B2A0     B2A0       28        C       0
                text69                             4C66     4C66      7E6        C       0
                text68                             ABF4     ABF4       58        C       0
                text67                             B276     B276       2A        C       0
                text66                             B364     B364       16        C       0
                text65                             AB3E     AB3E       5C        C       0
                text64                             AF16     AF16       3A        C       0
                text63                             865C     865C      170        C       0
                text62                             978A     978A       FA        C       0
                text61                             8FC0     8FC0      12C        C       0
                text60                             967C     967C      10E        C       0
                text59                             A404     A404       A0        C       0
                text58                             AA04     AA04       76        C       0
                text57                             B416     B416       10        C       0
                text56                             B45E     B45E        E        C       0
                text55                             B4B8     B4B8        A        C       0
                text54                             AAE0     AAE0       5E        C       0
                text53                             AD46     AD46       48        C       0
                text52                             B450     B450        E        C       0
                text51                             B442     B442        E        C       0
                text50                             B4AE     B4AE        A        C       0
                text49                             B3A6     B3A6       14        C       0
                text48                             B434     B434        E        C       0
                text47                             A896     A896       7C        C       0
                text46                             A362     A362       A2        C       0
                text45                             AA7A     AA7A       66        C       0
                text44                             9566     9566      116        C       0
                text43                             9448     9448      11E        C       0
                text42                             9A5C     9A5C       DC        C       0
                text41                             9E74     9E74       CA        C       0
                text40                             7E1E     7E1E      1CE        C       0
                text39                             84D4     84D4      188        C       0
                text38                             A004     A004       B6        C       0
                text37                             A16E     A16E       AE        C       0
                text36                             9CD8     9CD8       CE        C       0
                text35                             8D38     8D38      14E        C       0
                text34                             B0CC     B0CC       32        C       0
                text33                             A912     A912       7A        C       0
                text32                             6586     6586      486        C       0
                text31                             6A0C     6A0C      45E        C       0
                text30                             932A     932A      11E        C       0
                text29                             B316     B316       1E        C       0
                text28                             B066     B066       34        C       0
                text27                             AFFA     AFFA       36        C       0
                text26                             A2C0     A2C0       A2        C       0
                text25                             B4EA     B4EA        2        C       0
                text24                             8A94     8A94      152        C       0
                text23                             B21E     B21E       2C        C       0
                text22                             A542     A542       9E        C       0
                text21                             B3E0     B3E0       12        C       0
                text20                             3FE8     3FE8      C7E        C       0
                text19                             A78E     A78E       88        C       0
                text18                             A4A4     A4A4       9E        C       0
                text17                             B4A4     B4A4        A        C       0
                text16                             B3CE     B3CE       12        C       0
                text15                             9884     9884       F6        C       0
                text14                             AE9A     AE9A       3E        C       0
                text13                             79C6     79C6      258        C       0
                text12                             7C1E     7C1E      200        C       0
                text11                             A98C     A98C       78        C       0
                text10                             A5E0     A5E0       94        C       0
                text9                              920C     920C      11E        C       0
                text8                              AF8A     AF8A       38        C       0
                text7                              AE16     AE16       42        C       0
                text6                              A674     A674       90        C       0
                text5                              AD8E     AD8E       44        C       0
                text4                               1D0      1D0     2E9E        C       0
                text3                              ACA2     ACA2       54        C       0
                text2                              B426     B426        E        C       0
                text1                              7196     7196      2DA        C       0
                text0                              5A70     5A70      612        C       0
                cstackCOMRAM                          1        1       3F        1       1
                cstackBANK0                          60       60       98       60       1
                cstackBANK1                         100      100       FF      100       1
                cstackBANK2                         200      200       8C      200       1
                cstackBANK3                         300      300       E5      300       1
                bssBANK6                            600      600       C8      600       1
                dataBANK5                           500      500       32      500       1
                bssBANK5                            532      532       1E      500       1
                bssBANK4                            400      400       FB      400       1
                dataBANK3                           3F1      3F1        4      300       1
                bssBANK3                            3E5      3E5        C      300       1
                bssBANK2                            28C      28C       66      200       1
                dataBANK0                            FC       FC        4       60       1
                bssBANK0                             F8       F8        4       60       1
                dataCOMRAM                           58       58        2        1       1
                bssCOMRAM                            40       40       18        1       1
                cinit                              9B38     9B38       D0        C       0
                idataBANK5                         B09A     B09A       32        C       0
                idataBANK3                         B4E4     B4E4        4        C       0
                idataBANK0                         B4E0     B4E0        4        C       0
                idataCOMRAM                        B4E8     B4E8        2        C       0

TOTAL           Name                               Link     Load   Length     Space
        CLASS   STACK          

        CLASS   CODE           
                end_init                            1CC      1CC        4         0
                intcodelo                            18       18      1B4         0
                intcode                               8        8       10         0
                reset_vec                             0        0        4         0
                text126                            6E6A     6E6A      32C         0
                text125                            B4D6     B4D6        A         0
                text124                            B4CC     B4CC        A         0
                text123                            B496     B496        E         0
                text122                            B4C2     B4C2        A         0
                text121                            AE58     AE58       42         0
                intcode_body                       544C     544C      624         0
                text119                            AED8     AED8       3E         0
                text118                            B1F0     B1F0       2E         0
                text117                            B2C8     B2C8       28         0
                text116                            B34C     B34C       18         0
                text115                            B488     B488        E         0
                text114                            B390     B390       16         0
                text113                            B2F0     B2F0       26         0
                text112                            B130     B130       32         0
                text111                            B192     B192       30         0
                text109                            B4EC     B4EC        2         0
                text108                            ADD2     ADD2       44         0
                text107                            B3BA     B3BA       14         0
                text106                            B47A     B47A        E         0
                text105                            B37A     B37A       16         0
                text104                            B404     B404       12         0
                text103                            AB9A     AB9A       5A         0
                text102                            A704     A704       8A         0
                text101                            B46C     B46C        E         0
                text100                            B334     B334       18         0
                text99                             B3F2     B3F2       12         0
                text98                             AC4C     AC4C       56         0
                text97                             997A     997A       E2         0
                text96                             8E86     8E86      13A         0
                text95                             AF50     AF50       3A         0
                text94                             B0FE     B0FE       32         0
                text93                             9DA6     9DA6       CE         0
                text92                             B162     B162       30         0
                text91                             90EC     90EC      120         0
                text90                             7748     7748      27E         0
                text89                             ACF6     ACF6       50         0
                text88                             8BE6     8BE6      152         0
                text87                             9F3E     9F3E       C6         0
                text86                             A21C     A21C       A4         0
                text85                             A816     A816       80         0
                text84                             8340     8340      194         0
                text83                             819A     819A      1A6         0
                text82                             9C08     9C08       D0         0
                text81                             A0BA     A0BA       B4         0
                text80                             87CC     87CC      16C         0
                text79                             AFC2     AFC2       38         0
                text78                             7470     7470      2D8         0
                text77                             B1C2     B1C2       2E         0
                text76                             6082     6082      504         0
                text75                             306E     306E      F7A         0
                text74                             8938     8938      15C         0
                text73                             B24A     B24A       2C         0
                text72                             7FEC     7FEC      1AE         0
                text71                             B030     B030       36         0
                text70                             B2A0     B2A0       28         0
                text69                             4C66     4C66      7E6         0
                text68                             ABF4     ABF4       58         0
                text67                             B276     B276       2A         0
                text66                             B364     B364       16         0
                text65                             AB3E     AB3E       5C         0
                text64                             AF16     AF16       3A         0
                text63                             865C     865C      170         0
                text62                             978A     978A       FA         0
                text61                             8FC0     8FC0      12C         0
                text60                             967C     967C      10E         0
                text59                             A404     A404       A0         0
                text58                             AA04     AA04       76         0
                text57                             B416     B416       10         0
                text56                             B45E     B45E        E         0
                text55                             B4B8     B4B8        A         0
                text54                             AAE0     AAE0       5E         0
                text53                             AD46     AD46       48         0
                text52                             B450     B450        E         0
                text51                             B442     B442        E         0
                text50                             B4AE     B4AE        A         0
                text49                             B3A6     B3A6       14         0
                text48                             B434     B434        E         0
                text47                             A896     A896       7C         0
                text46                             A362     A362       A2         0
                text45                             AA7A     AA7A       66         0
                text44                             9566     9566      116         0
                text43                             9448     9448      11E         0
                text42                             9A5C     9A5C       DC         0
                text41                             9E74     9E74       CA         0
                text40                             7E1E     7E1E      1CE         0
                text39                             84D4     84D4      188         0
                text38                             A004     A004       B6         0
                text37                             A16E     A16E       AE         0
                text36                             9CD8     9CD8       CE         0
                text35                             8D38     8D38      14E         0
                text34                             B0CC     B0CC       32         0
                text33                             A912     A912       7A         0
                text32                             6586     6586      486         0
                text31                             6A0C     6A0C      45E         0
                text30                             932A     932A      11E         0
                text29                             B316     B316       1E         0
                text28                             B066     B066       34         0
                text27                             AFFA     AFFA       36         0
                text26                             A2C0     A2C0       A2         0
                text25                             B4EA     B4EA        2         0
                text24                             8A94     8A94      152         0
                text23                             B21E     B21E       2C         0
                text22                             A542     A542       9E         0
                text21                             B3E0     B3E0       12         0
                text20                             3FE8     3FE8      C7E         0
                text19                             A78E     A78E       88         0
                text18                             A4A4     A4A4       9E         0
                text17                             B4A4     B4A4        A         0
                text16                             B3CE     B3CE       12         0
                text15                             9884     9884       F6         0
                text14                             AE9A     AE9A       3E         0
                text13                             79C6     79C6      258         0
                text12                             7C1E     7C1E      200         0
                text11                             A98C     A98C       78         0
                text10                             A5E0     A5E0       94         0
                text9                              920C     920C      11E         0
                text8                              AF8A     AF8A       38         0
                text7                              AE16     AE16       42         0
                text6                              A674     A674       90         0
                text5                              AD8E     AD8E       44         0
                text4                               1D0      1D0     2E9E         0
                text3                              ACA2     ACA2       54         0
                text2                              B426     B426        E         0
                text1                              7196     7196      2DA         0
                text0                              5A70     5A70      612         0
                cinit                              9B38     9B38       D0         0
                idataBANK5                         B09A     B09A       32         0
                idataBANK3                         B4E4     B4E4        4         0
                idataBANK0                         B4E0     B4E0        4         0
                idataCOMRAM                        B4E8     B4E8        2         0

        CLASS   CONST          

        CLASS   SMALLCONST     

        CLASS   MEDIUMCONST    
                mediumconst                        EB4A     EB4A     14B6         0

        CLASS   COMRAM         
                cstackCOMRAM                          1        1       3F         1
                dataCOMRAM                           58       58        2         1
                bssCOMRAM                            40       40       18         1

        CLASS   ABS1           

        CLASS   BIGRAM         

        CLASS   RAM            

        CLASS   BANK0          
                cstackBANK0                          60       60       98         1
                dataBANK0                            FC       FC        4         1
                bssBANK0                             F8       F8        4         1

        CLASS   BANK1          
                cstackBANK1                         100      100       FF         1

        CLASS   BANK2          
                cstackBANK2                         200      200       8C         1
                bssBANK2                            28C      28C       66         1

        CLASS   BANK3          
                cstackBANK3                         300      300       E5         1
                dataBANK3                           3F1      3F1        4         1
                bssBANK3                            3E5      3E5        C         1

        CLASS   BANK4          
                bssBANK4                            400      400       FB         1

        CLASS   BANK5          
                dataBANK5                           500      500       32         1
                bssBANK5                            532      532       1E         1

        CLASS   BANK6          
                bssBANK6                            600      600       C8         1

        CLASS   BANK7          

        CLASS   BANK8          

        CLASS   BANK9          

        CLASS   BANK10         

        CLASS   BANK11         

        CLASS   BANK12         

        CLASS   BANK13         

        CLASS   BANK14         

        CLASS   BANK15         

        CLASS   SFR            

        CLASS   FARRAM         

        CLASS   CONFIG         
                config                           300000   300000        E         0

        CLASS   IDLOC          
                idloc                            200000   200000        8         0

        CLASS   EEDATA         



SEGMENTS        Name                           Load    Length   Top    Selector   Space  Class

                reset_vec                      000000  000004  000004         0       0  CODE    
                cstackCOMRAM                   000001  000059  00005A         1       1  COMRAM  
                intcode                        000008  000010  000018         4       0  CODE    
                intcodelo                      000018  00B4D6  00B4EE         C       0  CODE    
                cstackBANK0                    000060  0000A0  000100        60       1  BANK0   
                cstackBANK1                    000100  0000FF  0001FF       100       1  BANK1   
                cstackBANK2                    000200  0000F2  0002F2       200       1  BANK2   
                cstackBANK3                    000300  0000F5  0003F5       300       1  BANK3   
                bssBANK4                       000400  0000FB  0004FB       400       1  BANK4   
                dataBANK5                      000500  000050  000550       500       1  BANK5   
                bssBANK6                       000600  0000C8  0006C8       600       1  BANK6   
                mediumconst                    00EB4A  0014B6  010000      75A5       0  MEDIUMCO
                idloc                          200000  000008  200008    200000       0  IDLOC   
                config                         300000  00000E  30000E    300000       0  CONFIG  


UNUSED ADDRESS RANGES

        Name                Unused          Largest block    Delta
        BANK1            0001FF-0001FF                1
        BANK10           000A00-000AFF              100
        BANK11           000B00-000BFF              100
        BANK12           000C00-000CFF              100
        BANK13           000D00-000DFF              100
        BANK14           000E00-000EFF              100
        BANK15           000F00-000F5F               60
        BANK2            0002F2-0002FF                E
        BANK3            0003F5-0003FF                B
        BANK4            0004FB-0004FF                5
        BANK5            000550-0005FF               B0
        BANK6            0006C8-0006FF               38
        BANK7            000700-0007FF              100
        BANK8            000800-0008FF              100
        BANK9            000900-0009FF              100
        BIGRAM           00005A-00005F                6
                         0001FF-0001FF                1
                         0002F2-0002FF                E
                         0003F5-0003FF                B
                         0004FB-0004FF                5
                         000550-0005FF               B0
                         0006C8-000F5F              898
        CODE             000004-000007                4
                         00B4EE-00EB49             365C
        COMRAM           00005A-00005F                6
        CONST            000004-000007                4
                         00B4EE-00EB49             365C
        EEDATA           F00000-F003FF              400
        MEDIUMCONST      00B4EE-00EB49             365C
        RAM              0001FF-0001FF                1
                         0002F2-0002FF                E
                         0003F5-0003FF                B
                         0004FB-0004FF                5
                         000550-0005FF               B0
                         0006C8-000F5F              100
        SFR              000F60-000FFF               A0
        SMALLCONST       00B4EE-00EB49              100
        STACK            0006C8-000F5F              898

                                  Symbol Table

?_EncodeNEC                                 cstackBANK0  000067
?_GetMemoryChar                             cstackBANK0  000067
?_GetMemoryLong                             cstackBANK0  000067
?_ReadEEPROM_1Byte                          cstackBANK0  000063
?_ReadVoltage                               cstackBANK0  00008C
?_Reverse_4Byte                             cstackBANK0  000063
?_Round                                     cstackBANK0  0000B1
?_SetEEPROM1                                cstackBANK0  000099
?_SetEEPROM2                                cstackBANK0  000099
?___altoft                                  cstackBANK0  00006B
?___awdiv                                   cstackBANK0  000069
?___awmod                                   cstackBANK0  000063
?___ftadd                                   cstackBANK0  000096
?___ftdiv                                   cstackBANK0  00006E
?___ftmul                                   cstackBANK0  00007D
?___ftneg                                   cstackBANK0  000063
?___ftpack                                  cstackBANK0  000063
?___ftsub                                   cstackBANK0  0000A2
?___fttol                                   cstackBANK0  0000A2
?___lldiv                                   cstackBANK0  000063
?___llmod                                   cstackBANK0  000070
?___lltoft                                  cstackBANK0  00006B
?___lmul                                    cstackBANK0  000063
?___lwtoft                                  cstackBANK0  00006B
?___wmul                                    cstackBANK0  000071
?__div_to_l_                                cstackBANK0  000063
?__tdiv_to_l_                               cstackBANK0  000063
?_fround                                    cstackBANK0  00008C
?_scale                                     cstackBANK0  00008C
?_sprintf                                   cstackBANK0  0000B1
BluetoothInitialSetup@BluetoothVersionLine1 cstackBANK1  000133
BluetoothInitialSetup@BluetoothVersionLine2 cstackBANK1  000151
BluetoothInitialSetup@BroadcastTEMP         cstackBANK1  00016F
BluetoothInitialSetup@Default               cstackBANK1  0001B7
BluetoothInitialSetup@buf                   cstackBANK1  000184
BluetoothInitialSetup@first                 cstackBANK1  0001B6
BluetoothInitialSetup@i                     cstackBANK1  0001BA
BluetoothInitialSetup@j                     cstackBANK1  0001B8
BluetoothInitialSetup@ok                    cstackBANK1  0001B9
BufferCopy@count                            cstackBANK0  00006F
BufferCopy@from                             cstackBANK0  00006B
BufferCopy@i                                cstackBANK0  000071
BufferCopy@shift                            cstackBANK0  000070
BufferCopy@to                               cstackBANK0  00006D
DecodeNEC@Nec                               cstackBANK0  000067
DecodeNEC@address                           cstackBANK0  00006B
DecodeNEC@command                           cstackBANK0  00006D
DecodeNEC@temp1                             cstackBANK0  000075
DecodeNEC@temp2                             cstackBANK0  000073
DecodeNEC@temp3                             cstackBANK0  000074
DisplayRF_Channel@channel                   cstackBANK0  000070
EncodeNEC@address                           cstackBANK0  00008F
EncodeNEC@command                           cstackBANK0  000067
EncodeNEC@temp1                             cstackBANK0  00007F
EncodeNEC@temp2                             cstackBANK0  000083
EncodeNEC@temp3                             cstackBANK0  000087
EncodeNEC@temp4                             cstackBANK0  00008B
EnterCommandMode@buf                        cstackBANK1  000100
EnterCommandMode@count                      cstackBANK1  000132
EraseScreen@characters                      cstackCOMRAM 00000B
EraseScreen@i                               cstackCOMRAM 00000C
GetEEPROM1@Arrayspot                        cstackBANK0  00008C
GetEEPROM1@Temp                             cstackBANK0  000088
GetEEPROM1@i                                cstackBANK0  00008D
GetEEPROM1@j                                cstackBANK0  00008E
GetEEPROM2@Arrayspot                        cstackBANK0  00008C
GetEEPROM2@Temp                             cstackBANK0  000088
GetEEPROM2@i                                cstackBANK0  00008D
GetEEPROM2@j                                cstackBANK0  00008E
GetEEPROM2@k                                cstackBANK0  00008F
GetMemoryChar@AddressFirst                  cstackBANK0  00006B
GetMemoryChar@H                             cstackBANK0  00006C
GetMemoryLong@AddressFirst                  cstackBANK0  000087
GetMemoryLong@H                             cstackBANK0  000083
GetMemoryLong@L                             cstackBANK0  000086
GetMemoryLong@MH                            cstackBANK0  000084
GetMemoryLong@ML                            cstackBANK0  000085
GetMemoryLong@temp                          cstackBANK0  00007F
GetNumber@CommaNumber                       cstackBANK0  000071
GetNumber@Hex                               cstackBANK0  00007C
GetNumber@This                              cstackBANK0  00006F
GetNumber@count                             cstackBANK0  00007B
GetNumber@i                                 cstackBANK0  00007D
GetNumber@negative                          cstackBANK0  00007A
GetNumber@result                            cstackBANK0  000072
GetNumber@temp                              cstackBANK0  00007F
GetNumber@tempCommaNumber                   cstackBANK0  000079
GetNumber@tempThis                          cstackBANK0  00007E
GetNumberUnsigned@CommaNumber               cstackBANK0  000071
GetNumberUnsigned@Hex                       cstackBANK0  00007B
GetNumberUnsigned@This                      cstackBANK0  00006F
GetNumberUnsigned@count                     cstackBANK0  00007A
GetNumberUnsigned@i                         cstackBANK0  00007C
GetNumberUnsigned@result                    cstackBANK0  000072
GetNumberUnsigned@temp                      cstackBANK0  00007D
GetNumberUnsigned@tempCommaNumber           cstackBANK0  000079
GetNumberUnsigned@tempThis                  cstackBANK0  000081
GetStringAfterComma@CommaNumber             cstackBANK0  000065
GetStringAfterComma@This                    cstackBANK0  000063
GetStringAfterComma@count                   cstackBANK0  00006A
GetStringAfterComma@result                  cstackBANK0  000066
GetStringAfterComma@tempCommaNumber         cstackBANK0  000069
IRrawToNEC@Invert                           cstackCOMRAM 000024
IRrawToNEC@NEC                              cstackCOMRAM 000022
IRrawToNEC@NECtemp                          cstackCOMRAM 000027
IRrawToNEC@Raw                              cstackCOMRAM 000020
IRrawToNEC@StartBit                         cstackCOMRAM 00002D
IRrawToNEC@first                            cstackCOMRAM 00002B
IRrawToNEC@i                                cstackCOMRAM 00002C
InitUART@Baud                               cstackBANK0  0000B8
InitUART@config                             cstackBANK0  0000C5
InitUART@spbrg                              cstackBANK0  0000C3
InitUART@temp                               cstackBANK0  0000C6
Init_System@buf                             cstackBANK1  0001BB
InternalADC_Read@ADCcounts                  cstackBANK0  00006C
InternalADC_Read@AnaChanSel                 cstackBANK0  000070
InternalADC_Read@channel                    cstackBANK0  000071
IsAlphaNumeric@data                         cstackBANK0  000064
IsAlphaNumericString@data                   cstackBANK0  000065
IsCharacter@data                            cstackCOMRAM 000001
IsLetter@data                               cstackBANK0  000063
IsNumber@data                               cstackBANK0  000063
OpenUSART@config                            cstackBANK0  000065
OpenUSART@spbrg                             cstackBANK0  000063
ReadCodeButtons@temp                        cstackBANK0  00006C
ReadEEPROM_1Byte@GIEstatus                  cstackBANK0  000065
ReadEEPROM_1Byte@PEIEstatus                 cstackBANK0  000066
ReadEEPROM_1Byte@address                    cstackBANK0  000063
ReadUSART@data                              cstackBANK0  000063
ReadVoltage@temp                            cstackBANK0  000092
ReadVoltage@voltage                         cstackBANK0  00008F
Reverse_4Byte@This                          cstackBANK0  000063
Reverse_4Byte@temp                          cstackBANK0  00006F
Reverse_Byte@This                           cstackBANK0  000066
Reverse_Byte@temp                           cstackBANK0  000065
Round@input                                 cstackBANK0  0000B1
Round@temp                                  cstackBANK0  0000B4
SendNEC_bytes@RepeatAmount                  cstackBANK0  000077
SendNEC_bytes@code                          cstackBANK0  000073
SendNEC_wait@RepeatAmount                   cstackBANK0  00007C
SendNEC_wait@code                           cstackBANK0  000078
SendNEC_wait@toggle                         cstackBANK0  00007D
SendRF@Code                                 cstackBANK0  000063
SendRF@Config                               cstackBANK0  000065
SendRF@RepeatAmount                         cstackBANK0  000067
SendRF@i                                    cstackBANK0  00006A
SendRF@size                                 cstackBANK0  000066
SendRF_Channel@channel                      cstackBANK0  000070
SendRF_wait@Code                            cstackBANK0  00006B
SendRF_wait@Config                          cstackBANK0  00006D
SendRF_wait@amount                          cstackBANK0  00006F
SendRF_wait@size                            cstackBANK0  00006E
SetEEPROM1@Arrayspot                        cstackBANK0  0000BE
SetEEPROM1@Temp                             cstackBANK0  000099
SetEEPROM1@burn                             cstackBANK0  0000B7
SetEEPROM1@fail                             cstackBANK0  0000BF
SetEEPROM1@i                                cstackBANK0  0000C3
SetEEPROM1@j                                cstackBANK0  0000C4
SetEEPROM1@temp                             cstackBANK0  0000BD
SetEEPROM2@Arrayspot                        cstackBANK0  0000D8
SetEEPROM2@Temp                             cstackBANK0  000099
SetEEPROM2@burn                             cstackBANK0  0000CD
SetEEPROM2@fail                             cstackBANK0  0000D4
SetEEPROM2@i                                cstackBANK0  0000D9
SetEEPROM2@j                                cstackBANK0  0000DA
SetEEPROM2@k                                cstackBANK0  0000DB
SetEEPROM2@temp                             cstackBANK0  0000D3
SetEEPROMdefault@i                          cstackBANK0  0000E0
SetEEPROMdefault@j                          cstackBANK0  0000E1
SetEEPROMdefault@k                          cstackBANK0  0000DF
SetMemoryChar@AddressFirst                  cstackBANK0  00006D
SetMemoryChar@Data                          cstackBANK0  00006F
SetMemoryChar@Test                          cstackBANK0  00006E
SetMemoryLong@AddressFirst                  cstackBANK0  00008C
SetMemoryLong@Data                          cstackBANK0  000088
SetMemoryLong@H                             cstackBANK0  000095
SetMemoryLong@L                             cstackBANK0  000098
SetMemoryLong@MH                            cstackBANK0  000096
SetMemoryLong@ML                            cstackBANK0  000097
SetMemoryLong@Test                          cstackBANK0  000091
SetTimer0@temp                              cstackCOMRAM 000020
StringAddEqual@Input                        cstackBANK0  000072
StringAddEqual@NullPosition                 cstackBANK0  000076
StringAddEqual@firstnumber                  cstackBANK0  000077
StringAddEqual@i                            cstackBANK0  000078
StringAddEqual@j                            cstackBANK0  000079
StringAddEqual@temp                         cstackBANK1  000100
StringContains@MatchAmount                  cstackBANK0  000069
StringContains@MatchCount                   cstackBANK0  00006A
StringContains@That                         cstackBANK0  000065
StringContains@This                         cstackBANK0  000063
StringContains@i                            cstackBANK0  00006B
StringContainsCaseInsensitive@MatchAmount   cstackBANK0  00006C
StringContainsCaseInsensitive@MatchCount    cstackBANK0  00006D
StringContainsCaseInsensitive@That          cstackBANK0  000068
StringContainsCaseInsensitive@This          cstackBANK0  000066
StringContainsCaseInsensitive@i             cstackBANK0  000070
StringContainsCaseInsensitive@tempThat      cstackBANK0  00006F
StringContainsCaseInsensitive@tempThis      cstackBANK0  00006E
StringMatch@That                            cstackBANK0  000065
StringMatch@This                            cstackBANK0  000063
StringMatchCaseInsensitive@That             cstackBANK0  000068
StringMatchCaseInsensitive@This             cstackBANK0  000066
StringMatchCaseInsensitive@tempThat         cstackBANK0  00006B
StringMatchCaseInsensitive@tempThis         cstackBANK0  00006A
SyncEEPROMToGlobal@Temp1                    cstackBANK0  0000C9
SyncEEPROMToGlobal@Temp2                    cstackBANK0  000094
SyncEEPROMToGlobal@i                        cstackBANK0  0000E7
SyncEEPROMToGlobal@j                        cstackBANK0  0000E8
SyncEEPROMToGlobal@k                        cstackBANK0  0000C8
SyncGlobalToEEPROM@ok                       cstackBANK0  0000DC
UARTchar@data                               cstackBANK0  00006C
UARTchar_CONST@data                         cstackBANK0  00006C
UARTchar_CONST@temp                         cstackBANK0  00006D
UARTcommandMenu@Command                     cstackBANK0  000070
UARTcommandMenu@Desc                        cstackBANK0  000072
UARTcommandMenu@i                           cstackBANK0  000079
UARTcommandMenu@place                       cstackBANK0  00007A
UARTstring@data                             cstackBANK0  00006D
UARTstringCRLN@data                         cstackBANK0  000070
UARTstringCRLN_CONST@data                   cstackBANK0  000070
UARTstring_CONST@data                       cstackBANK0  00006E
UseBluetooth@EmptyPlace                     cstackBANK2  000282
UseBluetooth@EnteredNEC                     cstackBANK2  00027A
UseBluetooth@NecAddress                     cstackBANK2  000284
UseBluetooth@NecCommand                     cstackBANK2  000285
UseBluetooth@ReceivedStringPosOLD           cstackBANK2  00026E
UseBluetooth@SerialNumberTEMP               cstackBANK2  000273
UseBluetooth@String                         cstackBANK0  0000E9
UseBluetooth@StringPos                      cstackBANK0  0000EB
UseBluetooth@buf                            cstackBANK2  000200
UseBluetooth@device                         cstackBANK2  000278
UseBluetooth@i                              cstackBANK2  00028B
UseBluetooth@j                              cstackBANK2  00028A
UseBluetooth@k                              cstackBANK2  000283
UseBluetooth@ok                             cstackBANK2  00027E
UseBluetooth@rfchannelSTR                   cstackBANK2  000264
UseBluetooth@rfconf                         cstackBANK2  000281
UseBluetooth@set                            cstackBANK2  000279
UseBluetooth@system                         cstackBANK2  000277
UseBluetooth@temp                           cstackBANK2  000286
UseBluetooth@tempNec                        cstackBANK2  00026F
UseBluetooth@tempRFArray                    cstackBANK2  00027F
UseBluetooth@timeout                        cstackBANK2  000280
UseIRCode@Code                              cstackBANK0  0000DD
UseIRCode@NEC                               cstackBANK0  0000DF
UseIRCode@found                             cstackBANK0  0000E6
UseIRCode@i                                 cstackBANK0  0000E8
UseIRCode@j                                 cstackBANK0  0000E7
WaitForIRsignal@timeout                     cstackBANK0  000072
WriteEEPROM_1Byte@GIEstatus                 cstackBANK0  000066
WriteEEPROM_1Byte@PEIEstatus                cstackBANK0  000067
WriteEEPROM_1Byte@address                   cstackBANK0  000063
WriteEEPROM_1Byte@data                      cstackBANK0  000065
_ADCON0                                     (abs)        000FC2
_ADCON0bits                                 (abs)        000FC2
_ADCON1                                     (abs)        000FC1
_ADCON1bits                                 (abs)        000FC1
_ADCON2                                     (abs)        000FC0
_ADCON2bits                                 (abs)        000FC0
_ADRESH                                     (abs)        000FC4
_ADRESL                                     (abs)        000FC3
_ANSEL                                      (abs)        000F7E
_ANSELH                                     (abs)        000F7F
_BAUDCONbits                                (abs)        000FB8
_BatteryVoltage                             bssBANK3     0003E5
_BlueConnected                              text101      00B46C
_BluetoothBroadcast                         bssBANK4     0004E6
_BluetoothChangeStatus                      bssBANK3     0003E8
_BluetoothConfigured                        text104      00B404
_BluetoothFirmware1                         bssBANK4     0004C8
_BluetoothFirmware2                         bssBANK5     000532
_BluetoothInitialSetup                      text69       004C66
_BufferCopy                                 text102      00A704
_BufferOverflow                             bssBANK3     0003E9
_CRLN                                       mediumconst  00EE2A
_CheckReceivingIR                           text21       00B3E0
_ClearUSART                                 text99       00B3F2
_CommandString                              bssBANK4     000400
_CommandStringPos                           bssCOMRAM    000044
_Conf1_ChannelD                             mediumconst  00EDEC
_Conf1_ChannelD_STR                         mediumconst  00ED93
_Conf1_ChannelE                             mediumconst  00EDF8
_Conf1_ChannelE_STR                         mediumconst  00EDA2
_Conf1_ChannelF                             mediumconst  00EE04
_Conf1_ChannelF_STR                         mediumconst  00EDB1
_Conf1_Channels                             mediumconst  00EE1E
_Conf2_ChannelB_OFF                         mediumconst  00ECF3
_Conf2_ChannelB_OFF_STR                     mediumconst  00EC76
_Conf2_ChannelB_ON                          mediumconst  00ED03
_Conf2_ChannelB_ON_STR                      mediumconst  00EC9C
_Conf2_ChannelB_STR                         mediumconst  00EDC0
_Conf2_ChannelB_Status                      bssCOMRAM    000045
_Conf2_ChannelD_OFF                         mediumconst  00ED13
_Conf2_ChannelD_OFF_STR                     mediumconst  00EC89
_Conf2_ChannelD_ON                          mediumconst  00ED23
_Conf2_ChannelD_ON_STR                      mediumconst  00ECAE
_Conf2_ChannelD_STR                         mediumconst  00EDCF
_Conf2_ChannelD_Status                      bssCOMRAM    000046
_Conf2_ChannelH_1_OFF                       mediumconst  00ED33
_Conf2_ChannelH_1_OFF_STR                   mediumconst  00EBFB
_Conf2_ChannelH_1_ON                        mediumconst  00ED43
_Conf2_ChannelH_1_ON_STR                    mediumconst  00EC3A
_Conf2_ChannelH_1_STR                       mediumconst  00ECC0
_Conf2_ChannelH_1_Status                    bssCOMRAM    000047
_Conf2_ChannelH_2_OFF                       mediumconst  00ED53
_Conf2_ChannelH_2_OFF_STR                   mediumconst  00EC10
_Conf2_ChannelH_2_ON                        mediumconst  00ED63
_Conf2_ChannelH_2_ON_STR                    mediumconst  00EC4E
_Conf2_ChannelH_2_STR                       mediumconst  00ECD1
_Conf2_ChannelH_2_Status                    bssCOMRAM    000048
_Conf2_ChannelH_3_OFF                       mediumconst  00ED73
_Conf2_ChannelH_3_OFF_STR                   mediumconst  00EC25
_Conf2_ChannelH_3_ON                        mediumconst  00ED83
_Conf2_ChannelH_3_ON_STR                    mediumconst  00EC62
_Conf2_ChannelH_3_STR                       mediumconst  00ECE2
_Conf2_ChannelH_3_Status                    bssCOMRAM    000049
_Conf2_Channels                             mediumconst  00EE22
_ConfigureOscillator                        text109      00B4EC
_DecodeNEC                                  text37       00A16E
_DisplayRF_Channel                          text36       009CD8
_EEADR                                      (abs)        000FA9
_EEADRH                                     (abs)        000FAA
_EECON1bits                                 (abs)        000FA6
_EECON2                                     (abs)        000FA7
_EEDATA                                     (abs)        000FA8
_EEPROM_UNLOCK                              text66       00B364
_EEPROMinitialized                          text107      00B3BA
_EncodeNEC                                  text35       008D38
_EnterCommandMode                           text74       008938
_EraseScreen                                text117      00B2C8
_FirmVersion                                mediumconst  00EE10
_Frequency                                  mediumconst  00EE26
_GetEEPROM1                                 text42       009A5C
_GetEEPROM2                                 text41       009E74
_GetMemoryChar                              text67       00B276
_GetMemoryLong                              text63       00865C
_GetNumber                                  text32       006586
_GetNumberUnsigned                          text31       006A0C
_GetStringAfterComma                        text30       00932A
_Global1                                    bssBANK2     0002D4
_Global2                                    bssBANK2     0002A0
_INTCON2bits                                (abs)        000FF1
_INTCONbits                                 (abs)        000FF2
_IOCBbits                                   (abs)        000F7D
_IPR1bits                                   (abs)        000F9F
_IPR2bits                                   (abs)        000FA2
_IRRawCode                                  bssBANK6     000600
_IR_NEC                                     bssBANK3     0003EC
_IR_New_Code                                bssBANK3     0003F0
_IRaddress                                  bssCOMRAM    000056
_IRbit                                      bssCOMRAM    00004A
_IRbitPosition                              dataBANK0    0000FC
_IRcodeBit                                  bssCOMRAM    00004B
_IRcodePlace                                dataBANK0    0000FD
_IRcommand                                  bssCOMRAM    000057
_IRmod                                      bssCOMRAM    00004C
_IRpinOLD                                   bssCOMRAM    00004D
_IRrawCodeNum                               bssBANK0     0000F8
_IRrawToNEC                                 text126      006E6A
_IRrepeatAmount                             bssCOMRAM    00004E
_IRrepeatflag                               bssCOMRAM    00004F
_IRsendCode                                 bssCOMRAM    000040
_IRsendFlag                                 bssCOMRAM    000050
_IRtimeout                                  dataBANK3    0003F1
_InitADC                                    text105      00B37A
_InitApp                                    text108      00ADD2
_InitBluetooth                              text58       00AA04
_InitIR                                     text53       00AD46
_InitTimer0                                 text57       00B416
_InitTimer1                                 text52       00B450
_InitTimer2                                 text51       00B442
_InitTimer3                                 text50       00B4AE
_InitTimers                                 text49       00B3A6
_InitUART                                   text44       009566
_InitUART$4123                              cstackBANK0  0000C0
_Init_System                                text39       0084D4
_InternalADC_Read                           text26       00A2C0
_IsAlphaNumeric                             text28       00B066
_IsAlphaNumericString                       text27       00AFFA
_IsCharacter                                text116      00B34C
_IsLetter                                   text34       00B0CC
_IsNumber                                   text29       00B316
_LATA                                       (abs)        000F89
_LATB                                       (abs)        000F8A
_LATC                                       (abs)        000F8B
_LEDTimerON                                 text16       00B3CE
_Local_CloseUSART                           text48       00B434
_NewReceivedString                          bssBANK3     0003EA
_OpenUSART                                  text47       00A896
_PCBVersion                                 mediumconst  00EE19
_PIE1bits                                   (abs)        000F9D
_PIE2bits                                   (abs)        000FA0
_PIR1bits                                   (abs)        000F9E
_PIR2bits                                   (abs)        000FA1
_PORTA                                      (abs)        000F80
_PORTB                                      (abs)        000F81
_PORTC                                      (abs)        000F82
_PR2                                        (abs)        000FCB
_ProductName                                dataBANK5    000500
_ProjectName                                mediumconst  00EBE1
_RCONbits                                   (abs)        000FD0
_RCREG                                      (abs)        000FAE
_RCSTA                                      (abs)        000FAB
_RCSTAbits                                  (abs)        000FAB
_RFConfig                                   bssBANK0     0000F9
_RF_IR                                      dataCOMRAM   000058
_RF_IR_Postscaler                           dataBANK0    0000FE
_RFcodeBit                                  bssCOMRAM    000051
_RFcodePlace                                bssBANK0     0000FA
_RFsendCode                                 bssBANK2     00028C
_RFsendFlag                                 bssBANK0     0000FB
_ReadCodeButtons                            text3        00ACA2
_ReadEEPROM_1Byte                           text68       00ABF4
_ReadIRpin                                  text56       00B45E
_ReadPushButton                             text2        00B426
_ReadUSART                                  text100      00B334
_ReadVoltage                                text22       00A542
_ReceivedString                             bssBANK4     000464
_ReceivedStringPos                          bssBANK3     0003EB
_ReceivingIR                                dataCOMRAM   000059
_ResetADC                                   text106      00B47A
_ResetBlue                                  text97       00997A
_ResetTimer0                                text55       00B4B8
_ResetTimer1                                text17       00B4A4
_ResetTimer3                                text125      00B4D6
_Reverse_4Byte                              text20       003FE8
_Reverse_Byte                               text38       00A004
_Round                                      text45       00AA7A
_SPBRG                                      (abs)        000FAF
_SPBRGH                                     (abs)        000FB0
_SYNTAX_ERR                                 mediumconst  00EDDE
_SendNEC_bytes                              text19       00A78E
_SendNEC_wait                               text18       00A4A4
_SendRF                                     text15       009884
_SendRF_Channel                             text13       0079C6
_SendRF_wait                                text14       00AE9A
_Sendcount                                  bssCOMRAM    000052
_Sent                                       dataBANK0    0000FF
_SetEEPROM1                                 text61       008FC0
_SetEEPROM2                                 text60       00967C
_SetEEPROMdefault                           text43       009448
_SetMemoryChar                              text64       00AF16
_SetMemoryLong                              text62       00978A
_SetTimer0                                  text124      00B4CC
_StringAddEqual                             text12       007C1E
_StringContains                             text96       008E86
_StringContainsCaseInsensitive              text72       007FEC
_StringMatch                                text11       00A98C
_StringMatchCaseInsensitive                 text10       00A5E0
_SyncEEPROMToGlobal                         text40       007E1E
_SyncGlobalToEEPROM                         text59       00A404
_T0CONbits                                  (abs)        000FD5
_T1CONbits                                  (abs)        000FCD
_T2CONbits                                  (abs)        000FCA
_T3CONbits                                  (abs)        000FB1
_TABLAT                                     (abs)        000FF5
_TBLPTRH                                    (abs)        000FF7
_TBLPTRL                                    (abs)        000FF6
_TBLPTRU                                    (abs)        000FF8
_TMR0H                                      (abs)        000FD7
_TMR0L                                      (abs)        000FD6
_TMR1H                                      (abs)        000FCF
_TMR1L                                      (abs)        000FCE
_TMR2                                       (abs)        000FCC
_TMR3H                                      (abs)        000FB3
_TMR3L                                      (abs)        000FB2
_TRISAbits                                  (abs)        000F92
_TRISBbits                                  (abs)        000F93
_TRISCbits                                  (abs)        000F94
_TXREG                                      (abs)        000FAD
_TXSTA                                      (abs)        000FAC
_TXSTAbits                                  (abs)        000FAC
_Timer1_Postscaler                          bssCOMRAM    000053
_Timer2_Postscaler                          bssCOMRAM    000054
_Timer3_Postscaler                          bssCOMRAM    000055
_UARTchar                                   text71       00B030
_UARTchar_CONST                             text95       00AF50
_UARTcommandMenu                            text9        00920C
_UARTstring                                 text70       00B2A0
_UARTstringCRLN                             text8        00AF8A
_UARTstringCRLN_CONST                       text7        00AE16
_UARTstring_CONST                           text94       00B0FE
_UseBluetooth                               text4        0001D0
_UseIRCode                                  text1        007196
_VoltageDividerOFF                          text25       00B4EA
_WPUB                                       (abs)        000F7C
_WaitForIRsignal                            text6        00A674
_WriteEEPROM_1Byte                          text65       00AB3E
__CFG_BOREN$SBORDIS                         (abs)        000000
__CFG_BORV$27                               (abs)        000000
__CFG_CCP2MX$PORTC                          (abs)        000000
__CFG_CP0$OFF                               (abs)        000000
__CFG_CP1$OFF                               (abs)        000000
__CFG_CP2$OFF                               (abs)        000000
__CFG_CP3$OFF                               (abs)        000000
__CFG_CPB$OFF                               (abs)        000000
__CFG_CPD$OFF                               (abs)        000000
__CFG_EBTR0$OFF                             (abs)        000000
__CFG_EBTR1$OFF                             (abs)        000000
__CFG_EBTR2$OFF                             (abs)        000000
__CFG_EBTR3$OFF                             (abs)        000000
__CFG_EBTRB$OFF                             (abs)        000000
__CFG_FCMEN$OFF                             (abs)        000000
__CFG_FOSC$HSPLL                            (abs)        000000
__CFG_HFOFST$ON                             (abs)        000000
__CFG_IESO$OFF                              (abs)        000000
__CFG_LPT1OSC$OFF                           (abs)        000000
__CFG_LVP$OFF                               (abs)        000000
__CFG_MCLRE$ON                              (abs)        000000
__CFG_PBADEN$OFF                            (abs)        000000
__CFG_PWRT$OFF                              (abs)        000000
__CFG_STVREN$ON                             (abs)        000000
__CFG_WDTEN$OFF                             (abs)        000000
__CFG_WDTPS$32768                           (abs)        000000
__CFG_WRT0$OFF                              (abs)        000000
__CFG_WRT1$OFF                              (abs)        000000
__CFG_WRT2$OFF                              (abs)        000000
__CFG_WRT3$OFF                              (abs)        000000
__CFG_WRTB$OFF                              (abs)        000000
__CFG_WRTC$OFF                              (abs)        000000
__CFG_WRTD$OFF                              (abs)        000000
__CFG_XINST$OFF                             (abs)        000000
__HRAM                                      (abs)        000000
__Habs1                                     abs1         000000
__Hbank0                                    bank0        000000
__Hbank1                                    bank1        000000
__Hbank10                                   bank10       000000
__Hbank11                                   bank11       000000
__Hbank12                                   bank12       000000
__Hbank13                                   bank13       000000
__Hbank14                                   bank14       000000
__Hbank15                                   bank15       000000
__Hbank2                                    bank2        000000
__Hbank3                                    bank3        000000
__Hbank4                                    bank4        000000
__Hbank5                                    bank5        000000
__Hbank6                                    bank6        000000
__Hbank7                                    bank7        000000
__Hbank8                                    bank8        000000
__Hbank9                                    bank9        000000
__Hbigbss                                   bigbss       000000
__Hbigdata                                  bigdata      000000
__Hbigram                                   bigram       000000
__Hbss                                      bss          000000
__HbssBANK0                                 bssBANK0     000000
__HbssBANK2                                 bssBANK2     000000
__HbssBANK3                                 bssBANK3     000000
__HbssBANK4                                 bssBANK4     000000
__HbssBANK5                                 bssBANK5     000000
__HbssBANK6                                 bssBANK6     000000
__HbssCOMRAM                                bssCOMRAM    000000
__Hcinit                                    cinit        000000
__Hclrtext                                  clrtext      000000
__Hcomram                                   comram       000000
__Hconfig                                   config       30000E
__Hconst                                    const        000000
__HcstackBANK0                              cstackBANK0  000000
__HcstackBANK1                              cstackBANK1  000000
__HcstackBANK2                              cstackBANK2  000000
__HcstackBANK3                              cstackBANK3  000000
__HcstackCOMRAM                             cstackCOMRAM 000000
__Hdata                                     data         000000
__HdataBANK0                                dataBANK0    000000
__HdataBANK3                                dataBANK3    000000
__HdataBANK5                                dataBANK5    000000
__HdataCOMRAM                               dataCOMRAM   000000
__Heeprom_data                              eeprom_data  000000
__Hend_init                                 end_init     0001D0
__Hfarbss                                   farbss       000000
__Hfardata                                  fardata      000000
__Hibigdata                                 ibigdata     000000
__Hidata                                    idata        000000
__HidataBANK0                               idataBANK0   000000
__HidataBANK3                               idataBANK3   000000
__HidataBANK5                               idataBANK5   000000
__HidataCOMRAM                              idataCOMRAM  000000
__Hidloc                                    idloc        200008
__Hifardata                                 ifardata     000000
__Hinit                                     init         0001CC
__Hintcode                                  intcode      000018
__Hintcode_body                             intcode_body 000000
__Hintcodelo                                intcodelo    0001CC
__Hintentry                                 intentry     000000
__Hintret                                   intret       000000
__Hintsave_regs                             intsave_regs 000000
__Hirdata                                   irdata       000000
__Hmediumconst                              mediumconst  010000
__HnvFARRAM                                 nvFARRAM     000000
__Hnvbit                                    nvbit        000000
__Hnvrram                                   nvrram       000000
__Hparam                                    rparam       000000
__Hpowerup                                  powerup      0001CC
__Hram                                      ram          000000
__Hramtop                                   ramtop       001000
__Hrbit                                     rbit         000000
__Hrbss                                     rbss         000000
__Hrdata                                    rdata        000000
__Hreset_vec                                reset_vec    000004
__Hrparam                                   rparam       000000
__Hsfr                                      sfr          000000
__Hsmallconst                               smallconst   000000
__Hspace_0                                  (abs)        30000E
__Hspace_1                                  (abs)        0006C8
__Hspace_2                                  (abs)        000000
__Hstack                                    stack        000000
__Hstruct                                   struct       000000
__Htemp                                     temp         000000
__Htext                                     text         000000
__Htext0                                    text0        000000
__Htext1                                    text1        000000
__Htext10                                   text10       000000
__Htext100                                  text100      000000
__Htext101                                  text101      000000
__Htext102                                  text102      000000
__Htext103                                  text103      000000
__Htext104                                  text104      000000
__Htext105                                  text105      000000
__Htext106                                  text106      000000
__Htext107                                  text107      000000
__Htext108                                  text108      000000
__Htext109                                  text109      000000
__Htext11                                   text11       000000
__Htext111                                  text111      000000
__Htext112                                  text112      000000
__Htext113                                  text113      000000
__Htext114                                  text114      000000
__Htext115                                  text115      000000
__Htext116                                  text116      000000
__Htext117                                  text117      000000
__Htext118                                  text118      000000
__Htext119                                  text119      000000
__Htext12                                   text12       000000
__Htext121                                  text121      000000
__Htext122                                  text122      000000
__Htext123                                  text123      000000
__Htext124                                  text124      000000
__Htext125                                  text125      000000
__Htext126                                  text126      000000
__Htext13                                   text13       000000
__Htext14                                   text14       000000
__Htext15                                   text15       000000
__Htext16                                   text16       000000
__Htext17                                   text17       000000
__Htext18                                   text18       000000
__Htext19                                   text19       000000
__Htext2                                    text2        000000
__Htext20                                   text20       000000
__Htext21                                   text21       000000
__Htext22                                   text22       000000
__Htext23                                   text23       000000
__Htext24                                   text24       000000
__Htext25                                   text25       000000
__Htext26                                   text26       000000
__Htext27                                   text27       000000
__Htext28                                   text28       000000
__Htext29                                   text29       000000
__Htext3                                    text3        000000
__Htext30                                   text30       000000
__Htext31                                   text31       000000
__Htext32                                   text32       000000
__Htext33                                   text33       000000
__Htext34                                   text34       000000
__Htext35                                   text35       000000
__Htext36                                   text36       000000
__Htext37                                   text37       000000
__Htext38                                   text38       000000
__Htext39                                   text39       000000
__Htext4                                    text4        000000
__Htext40                                   text40       000000
__Htext41                                   text41       000000
__Htext42                                   text42       000000
__Htext43                                   text43       000000
__Htext44                                   text44       000000
__Htext45                                   text45       000000
__Htext46                                   text46       000000
__Htext47                                   text47       000000
__Htext48                                   text48       000000
__Htext49                                   text49       000000
__Htext5                                    text5        000000
__Htext50                                   text50       000000
__Htext51                                   text51       000000
__Htext52                                   text52       000000
__Htext53                                   text53       000000
__Htext54                                   text54       000000
__Htext55                                   text55       000000
__Htext56                                   text56       000000
__Htext57                                   text57       000000
__Htext58                                   text58       000000
__Htext59                                   text59       000000
__Htext6                                    text6        000000
__Htext60                                   text60       000000
__Htext61                                   text61       000000
__Htext62                                   text62       000000
__Htext63                                   text63       000000
__Htext64                                   text64       000000
__Htext65                                   text65       000000
__Htext66                                   text66       000000
__Htext67                                   text67       000000
__Htext68                                   text68       000000
__Htext69                                   text69       000000
__Htext7                                    text7        000000
__Htext70                                   text70       000000
__Htext71                                   text71       000000
__Htext72                                   text72       000000
__Htext73                                   text73       000000
__Htext74                                   text74       000000
__Htext75                                   text75       000000
__Htext76                                   text76       000000
__Htext77                                   text77       000000
__Htext78                                   text78       000000
__Htext79                                   text79       000000
__Htext8                                    text8        000000
__Htext80                                   text80       000000
__Htext81                                   text81       000000
__Htext82                                   text82       000000
__Htext83                                   text83       000000
__Htext84                                   text84       000000
__Htext85                                   text85       000000
__Htext86                                   text86       000000
__Htext87                                   text87       000000
__Htext88                                   text88       000000
__Htext89                                   text89       000000
__Htext9                                    text9        000000
__Htext90                                   text90       000000
__Htext91                                   text91       000000
__Htext92                                   text92       000000
__Htext93                                   text93       000000
__Htext94                                   text94       000000
__Htext95                                   text95       000000
__Htext96                                   text96       000000
__Htext97                                   text97       000000
__Htext98                                   text98       000000
__Htext99                                   text99       000000
__LRAM                                      (abs)        000001
__Labs1                                     abs1         000000
__Lbank0                                    bank0        000000
__Lbank1                                    bank1        000000
__Lbank10                                   bank10       000000
__Lbank11                                   bank11       000000
__Lbank12                                   bank12       000000
__Lbank13                                   bank13       000000
__Lbank14                                   bank14       000000
__Lbank15                                   bank15       000000
__Lbank2                                    bank2        000000
__Lbank3                                    bank3        000000
__Lbank4                                    bank4        000000
__Lbank5                                    bank5        000000
__Lbank6                                    bank6        000000
__Lbank7                                    bank7        000000
__Lbank8                                    bank8        000000
__Lbank9                                    bank9        000000
__Lbigbss                                   bigbss       000000
__Lbigdata                                  bigdata      000000
__Lbigram                                   bigram       000000
__Lbss                                      bss          000000
__LbssBANK0                                 bssBANK0     000000
__LbssBANK2                                 bssBANK2     000000
__LbssBANK3                                 bssBANK3     000000
__LbssBANK4                                 bssBANK4     000000
__LbssBANK5                                 bssBANK5     000000
__LbssBANK6                                 bssBANK6     000000
__LbssCOMRAM                                bssCOMRAM    000000
__Lcinit                                    cinit        000000
__Lclrtext                                  clrtext      000000
__Lcomram                                   comram       000000
__Lconfig                                   config       300000
__Lconst                                    const        000000
__LcstackBANK0                              cstackBANK0  000000
__LcstackBANK1                              cstackBANK1  000000
__LcstackBANK2                              cstackBANK2  000000
__LcstackBANK3                              cstackBANK3  000000
__LcstackCOMRAM                             cstackCOMRAM 000000
__Ldata                                     data         000000
__LdataBANK0                                dataBANK0    000000
__LdataBANK3                                dataBANK3    000000
__LdataBANK5                                dataBANK5    000000
__LdataCOMRAM                               dataCOMRAM   000000
__Leeprom_data                              eeprom_data  000000
__Lend_init                                 end_init     0001CC
__Lfarbss                                   farbss       000000
__Lfardata                                  fardata      000000
__Libigdata                                 ibigdata     000000
__Lidata                                    idata        000000
__LidataBANK0                               idataBANK0   000000
__LidataBANK3                               idataBANK3   000000
__LidataBANK5                               idataBANK5   000000
__LidataCOMRAM                              idataCOMRAM  000000
__Lidloc                                    idloc        200000
__Lifardata                                 ifardata     000000
__Linit                                     init         0001CC
__Lintcode                                  intcode      000008
__Lintcode_body                             intcode_body 000000
__Lintcodelo                                intcodelo    000018
__Lintentry                                 intentry     000000
__Lintret                                   intret       000000
__Lintsave_regs                             intsave_regs 000000
__Lirdata                                   irdata       000000
__Lmediumconst                              mediumconst  00EB4A
__LnvFARRAM                                 nvFARRAM     000000
__Lnvbit                                    nvbit        000000
__Lnvrram                                   nvrram       000000
__Lparam                                    rparam       000000
__Lpowerup                                  powerup      0001CC
__Lram                                      ram          000000
__Lramtop                                   ramtop       001000
__Lrbit                                     rbit         000000
__Lrbss                                     rbss         000000
__Lrdata                                    rdata        000000
__Lreset_vec                                reset_vec    000000
__Lrparam                                   rparam       000000
__Lsfr                                      sfr          000000
__Lsmallconst                               smallconst   000000
__Lspace_0                                  (abs)        000000
__Lspace_1                                  (abs)        000000
__Lspace_2                                  (abs)        000000
__Lstack                                    stack        000000
__Lstruct                                   struct       000000
__Ltemp                                     temp         000000
__Ltext                                     text         000000
__Ltext0                                    text0        000000
__Ltext1                                    text1        000000
__Ltext10                                   text10       000000
__Ltext100                                  text100      000000
__Ltext101                                  text101      000000
__Ltext102                                  text102      000000
__Ltext103                                  text103      000000
__Ltext104                                  text104      000000
__Ltext105                                  text105      000000
__Ltext106                                  text106      000000
__Ltext107                                  text107      000000
__Ltext108                                  text108      000000
__Ltext109                                  text109      000000
__Ltext11                                   text11       000000
__Ltext111                                  text111      000000
__Ltext112                                  text112      000000
__Ltext113                                  text113      000000
__Ltext114                                  text114      000000
__Ltext115                                  text115      000000
__Ltext116                                  text116      000000
__Ltext117                                  text117      000000
__Ltext118                                  text118      000000
__Ltext119                                  text119      000000
__Ltext12                                   text12       000000
__Ltext121                                  text121      000000
__Ltext122                                  text122      000000
__Ltext123                                  text123      000000
__Ltext124                                  text124      000000
__Ltext125                                  text125      000000
__Ltext126                                  text126      000000
__Ltext13                                   text13       000000
__Ltext14                                   text14       000000
__Ltext15                                   text15       000000
__Ltext16                                   text16       000000
__Ltext17                                   text17       000000
__Ltext18                                   text18       000000
__Ltext19                                   text19       000000
__Ltext2                                    text2        000000
__Ltext20                                   text20       000000
__Ltext21                                   text21       000000
__Ltext22                                   text22       000000
__Ltext23                                   text23       000000
__Ltext24                                   text24       000000
__Ltext25                                   text25       000000
__Ltext26                                   text26       000000
__Ltext27                                   text27       000000
__Ltext28                                   text28       000000
__Ltext29                                   text29       000000
__Ltext3                                    text3        000000
__Ltext30                                   text30       000000
__Ltext31                                   text31       000000
__Ltext32                                   text32       000000
__Ltext33                                   text33       000000
__Ltext34                                   text34       000000
__Ltext35                                   text35       000000
__Ltext36                                   text36       000000
__Ltext37                                   text37       000000
__Ltext38                                   text38       000000
__Ltext39                                   text39       000000
__Ltext4                                    text4        000000
__Ltext40                                   text40       000000
__Ltext41                                   text41       000000
__Ltext42                                   text42       000000
__Ltext43                                   text43       000000
__Ltext44                                   text44       000000
__Ltext45                                   text45       000000
__Ltext46                                   text46       000000
__Ltext47                                   text47       000000
__Ltext48                                   text48       000000
__Ltext49                                   text49       000000
__Ltext5                                    text5        000000
__Ltext50                                   text50       000000
__Ltext51                                   text51       000000
__Ltext52                                   text52       000000
__Ltext53                                   text53       000000
__Ltext54                                   text54       000000
__Ltext55                                   text55       000000
__Ltext56                                   text56       000000
__Ltext57                                   text57       000000
__Ltext58                                   text58       000000
__Ltext59                                   text59       000000
__Ltext6                                    text6        000000
__Ltext60                                   text60       000000
__Ltext61                                   text61       000000
__Ltext62                                   text62       000000
__Ltext63                                   text63       000000
__Ltext64                                   text64       000000
__Ltext65                                   text65       000000
__Ltext66                                   text66       000000
__Ltext67                                   text67       000000
__Ltext68                                   text68       000000
__Ltext69                                   text69       000000
__Ltext7                                    text7        000000
__Ltext70                                   text70       000000
__Ltext71                                   text71       000000
__Ltext72                                   text72       000000
__Ltext73                                   text73       000000
__Ltext74                                   text74       000000
__Ltext75                                   text75       000000
__Ltext76                                   text76       000000
__Ltext77                                   text77       000000
__Ltext78                                   text78       000000
__Ltext79                                   text79       000000
__Ltext8                                    text8        000000
__Ltext80                                   text80       000000
__Ltext81                                   text81       000000
__Ltext82                                   text82       000000
__Ltext83                                   text83       000000
__Ltext84                                   text84       000000
__Ltext85                                   text85       000000
__Ltext86                                   text86       000000
__Ltext87                                   text87       000000
__Ltext88                                   text88       000000
__Ltext89                                   text89       000000
__Ltext9                                    text9        000000
__Ltext90                                   text90       000000
__Ltext91                                   text91       000000
__Ltext92                                   text92       000000
__Ltext93                                   text93       000000
__Ltext94                                   text94       000000
__Ltext95                                   text95       000000
__Ltext96                                   text96       000000
__Ltext97                                   text97       000000
__Ltext98                                   text98       000000
__Ltext99                                   text99       000000
__S0                                        (abs)        30000E
__S1                                        (abs)        0006C8
__S2                                        (abs)        000000
___altoft                                   text46       00A362
___altoft@c                                 cstackBANK0  00006B
___altoft@exp                               cstackBANK0  000073
___altoft@sign                              cstackBANK0  000074
___awdiv                                    text82       009C08
___awdiv@counter                            cstackBANK0  00006D
___awdiv@dividend                           cstackBANK0  000069
___awdiv@divisor                            cstackBANK0  00006B
___awdiv@quotient                           cstackBANK0  00006F
___awdiv@sign                               cstackBANK0  00006E
___awmod                                    text81       00A0BA
___awmod@counter                            cstackBANK0  000067
___awmod@dividend                           cstackBANK0  000063
___awmod@divisor                            cstackBANK0  000065
___awmod@sign                               cstackBANK0  000068
___ftadd                                    text90       007748
___ftadd@exp1                               cstackBANK0  0000A1
___ftadd@exp2                               cstackBANK0  0000A0
___ftadd@f1                                 cstackBANK0  000096
___ftadd@f2                                 cstackBANK0  000099
___ftadd@sign                               cstackBANK0  00009F
___ftdiv                                    text24       008A94
___ftdiv@cntr                               cstackBANK0  000077
___ftdiv@exp                                cstackBANK0  00007B
___ftdiv@f1                                 cstackBANK0  00006E
___ftdiv@f2                                 cstackBANK0  000071
___ftdiv@f3                                 cstackBANK0  000078
___ftdiv@sign                               cstackBANK0  00007C
___ftge                                     text93       009DA6
___ftge@ff1                                 cstackBANK0  000063
___ftge@ff2                                 cstackBANK0  000066
___ftmul                                    text80       0087CC
___ftmul@cntr                               cstackBANK0  00008A
___ftmul@exp                                cstackBANK0  000086
___ftmul@f1                                 cstackBANK0  00007D
___ftmul@f2                                 cstackBANK0  000080
___ftmul@f3_as_product                      cstackBANK0  000087
___ftmul@sign                               cstackBANK0  00008B
___ftneg                                    text92       00B162
___ftneg@f1                                 cstackBANK0  000063
___ftpack                                   text91       0090EC
___ftpack@arg                               cstackBANK0  000063
___ftpack@exp                               cstackBANK0  000066
___ftpack@sign                              cstackBANK0  000067
___ftsub                                    text89       00ACF6
___ftsub@f1                                 cstackBANK0  0000A2
___ftsub@f2                                 cstackBANK0  0000A5
___fttol                                    text88       008BE6
___fttol@exp1                               cstackBANK0  0000B0
___fttol@f1                                 cstackBANK0  0000A2
___fttol@lval                               cstackBANK0  0000AC
___fttol@sign1                              cstackBANK0  0000AB
___inthi_sp                                 stack        000000
___intlo_sp                                 stack        000000
___lldiv                                    text87       009F3E
___lldiv@counter                            cstackBANK0  00006F
___lldiv@dividend                           cstackBANK0  000063
___lldiv@divisor                            cstackBANK0  000067
___lldiv@quotient                           cstackBANK0  00006B
___llmod                                    text86       00A21C
___llmod@counter                            cstackBANK0  000078
___llmod@dividend                           cstackBANK0  000070
___llmod@divisor                            cstackBANK0  000074
___lltoft                                   text85       00A816
___lltoft@c                                 cstackBANK0  00006B
___lltoft@exp                               cstackBANK0  000073
___lmul                                     text33       00A912
___lmul@multiplicand                        cstackBANK0  000067
___lmul@multiplier                          cstackBANK0  000063
___lmul@product                             cstackBANK0  00006B
___lwtoft                                   text23       00B21E
___lwtoft@c                                 cstackBANK0  00006B
___param_bank                               (abs)        000010
___rparam_used                              (abs)        000001
___sp                                       stack        000000
___wmul                                     text79       00AFC2
___wmul@multiplicand                        cstackBANK0  000073
___wmul@multiplier                          cstackBANK0  000071
___wmul@product                             cstackBANK0  000075
__accesstop                                 (abs)        000060
__activetblptr                              (abs)        000003
__div_to_l_                                 text84       008340
__div_to_l_@cntr                            cstackBANK0  00006D
__div_to_l_@exp1                            cstackBANK0  00006E
__div_to_l_@f1                              cstackBANK0  000063
__div_to_l_@f2                              cstackBANK0  000066
__div_to_l_@quot                            cstackBANK0  000069
__end_of_BlueConnected                      text101      00B47A
__end_of_BluetoothConfigured                text104      00B416
__end_of_BluetoothInitialSetup              text69       00544C
__end_of_BufferCopy                         text102      00A78E
__end_of_CRLN                               mediumconst  00EE2D
__end_of_CheckReceivingIR                   text21       00B3F2
__end_of_ClearUSART                         text99       00B404
__end_of_Conf1_ChannelD                     mediumconst  00EDF8
__end_of_Conf1_ChannelD_STR                 mediumconst  00EDA2
__end_of_Conf1_ChannelE                     mediumconst  00EE04
__end_of_Conf1_ChannelE_STR                 mediumconst  00EDB1
__end_of_Conf1_ChannelF                     mediumconst  00EE10
__end_of_Conf1_ChannelF_STR                 mediumconst  00EDC0
__end_of_Conf1_Channels                     mediumconst  00EE22
__end_of_Conf2_ChannelB_OFF                 mediumconst  00ED03
__end_of_Conf2_ChannelB_OFF_STR             mediumconst  00EC89
__end_of_Conf2_ChannelB_ON                  mediumconst  00ED13
__end_of_Conf2_ChannelB_ON_STR              mediumconst  00ECAE
__end_of_Conf2_ChannelB_STR                 mediumconst  00EDCF
__end_of_Conf2_ChannelD_OFF                 mediumconst  00ED23
__end_of_Conf2_ChannelD_OFF_STR             mediumconst  00EC9C
__end_of_Conf2_ChannelD_ON                  mediumconst  00ED33
__end_of_Conf2_ChannelD_ON_STR              mediumconst  00ECC0
__end_of_Conf2_ChannelD_STR                 mediumconst  00EDDE
__end_of_Conf2_ChannelH_1_OFF               mediumconst  00ED43
__end_of_Conf2_ChannelH_1_OFF_STR           mediumconst  00EC10
__end_of_Conf2_ChannelH_1_ON                mediumconst  00ED53
__end_of_Conf2_ChannelH_1_ON_STR            mediumconst  00EC4E
__end_of_Conf2_ChannelH_1_STR               mediumconst  00ECD1
__end_of_Conf2_ChannelH_2_OFF               mediumconst  00ED63
__end_of_Conf2_ChannelH_2_OFF_STR           mediumconst  00EC25
__end_of_Conf2_ChannelH_2_ON                mediumconst  00ED73
__end_of_Conf2_ChannelH_2_ON_STR            mediumconst  00EC62
__end_of_Conf2_ChannelH_2_STR               mediumconst  00ECE2
__end_of_Conf2_ChannelH_3_OFF               mediumconst  00ED83
__end_of_Conf2_ChannelH_3_OFF_STR           mediumconst  00EC3A
__end_of_Conf2_ChannelH_3_ON                mediumconst  00ED93
__end_of_Conf2_ChannelH_3_ON_STR            mediumconst  00EC76
__end_of_Conf2_ChannelH_3_STR               mediumconst  00ECF3
__end_of_Conf2_Channels                     mediumconst  00EE26
__end_of_ConfigureOscillator                text109      00B4EE
__end_of_DecodeNEC                          text37       00A21C
__end_of_DisplayRF_Channel                  text36       009DA6
__end_of_EEPROM_UNLOCK                      text66       00B37A
__end_of_EEPROMinitialized                  text107      00B3CE
__end_of_EncodeNEC                          text35       008E86
__end_of_EnterCommandMode                   text74       008A94
__end_of_EraseScreen                        text117      00B2F0
__end_of_FirmVersion                        mediumconst  00EE19
__end_of_Frequency                          mediumconst  00EE2A
__end_of_GetEEPROM1                         text42       009B38
__end_of_GetEEPROM2                         text41       009F3E
__end_of_GetMemoryChar                      text67       00B2A0
__end_of_GetMemoryLong                      text63       0087CC
__end_of_GetNumber                          text32       006A0C
__end_of_GetNumberUnsigned                  text31       006E6A
__end_of_GetStringAfterComma                text30       009448
__end_of_IRrawToNEC                         text126      007196
__end_of_InitADC                            text105      00B390
__end_of_InitApp                            text108      00AE16
__end_of_InitBluetooth                      text58       00AA7A
__end_of_InitIR                             text53       00AD8E
__end_of_InitTimer0                         text57       00B426
__end_of_InitTimer1                         text52       00B45E
__end_of_InitTimer2                         text51       00B450
__end_of_InitTimer3                         text50       00B4B8
__end_of_InitTimers                         text49       00B3BA
__end_of_InitUART                           text44       00967C
__end_of_Init_System                        text39       00865C
__end_of_InternalADC_Read                   text26       00A362
__end_of_IsAlphaNumeric                     text28       00B09A
__end_of_IsAlphaNumericString               text27       00B030
__end_of_IsCharacter                        text116      00B364
__end_of_IsLetter                           text34       00B0FE
__end_of_IsNumber                           text29       00B334
__end_of_LEDTimerON                         text16       00B3E0
__end_of_Local_CloseUSART                   text48       00B442
__end_of_OpenUSART                          text47       00A912
__end_of_PCBVersion                         mediumconst  00EE1E
__end_of_ProjectName                        mediumconst  00EBFB
__end_of_ReadCodeButtons                    text3        00ACF6
__end_of_ReadEEPROM_1Byte                   text68       00AC4C
__end_of_ReadIRpin                          text56       00B46C
__end_of_ReadPushButton                     text2        00B434
__end_of_ReadUSART                          text100      00B34C
__end_of_ReadVoltage                        text22       00A5E0
__end_of_ResetADC                           text106      00B488
__end_of_ResetBlue                          text97       009A5C
__end_of_ResetTimer0                        text55       00B4C2
__end_of_ResetTimer1                        text17       00B4AE
__end_of_ResetTimer3                        text125      00B4E0
__end_of_Reverse_4Byte                      text20       004C66
__end_of_Reverse_Byte                       text38       00A0BA
__end_of_Round                              text45       00AAE0
__end_of_SYNTAX_ERR                         mediumconst  00EDEC
__end_of_SendNEC_bytes                      text19       00A816
__end_of_SendNEC_wait                       text18       00A542
__end_of_SendRF                             text15       00997A
__end_of_SendRF_Channel                     text13       007C1E
__end_of_SendRF_wait                        text14       00AED8
__end_of_SetEEPROM1                         text61       0090EC
__end_of_SetEEPROM2                         text60       00978A
__end_of_SetEEPROMdefault                   text43       009566
__end_of_SetMemoryChar                      text64       00AF50
__end_of_SetMemoryLong                      text62       009884
__end_of_SetTimer0                          text124      00B4D6
__end_of_StringAddEqual                     text12       007E1E
__end_of_StringContains                     text96       008FC0
__end_of_StringContainsCaseInsensitive      text72       00819A
__end_of_StringMatch                        text11       00AA04
__end_of_StringMatchCaseInsensitive         text10       00A674
__end_of_SyncEEPROMToGlobal                 text40       007FEC
__end_of_SyncGlobalToEEPROM                 text59       00A4A4
__end_of_UARTchar                           text71       00B066
__end_of_UARTchar_CONST                     text95       00AF8A
__end_of_UARTcommandMenu                    text9        00932A
__end_of_UARTstring                         text70       00B2C8
__end_of_UARTstringCRLN                     text8        00AFC2
__end_of_UARTstringCRLN_CONST               text7        00AE58
__end_of_UARTstring_CONST                   text94       00B130
__end_of_UseBluetooth                       text4        00306E
__end_of_UseIRCode                          text1        007470
__end_of_VoltageDividerOFF                  text25       00B4EC
__end_of_WaitForIRsignal                    text6        00A704
__end_of_WriteEEPROM_1Byte                  text65       00AB9A
__end_of___altoft                           text46       00A404
__end_of___awdiv                            text82       009CD8
__end_of___awmod                            text81       00A16E
__end_of___ftadd                            text90       0079C6
__end_of___ftdiv                            text24       008BE6
__end_of___ftge                             text93       009E74
__end_of___ftmul                            text80       008938
__end_of___ftneg                            text92       00B192
__end_of___ftpack                           text91       00920C
__end_of___ftsub                            text89       00AD46
__end_of___fttol                            text88       008D38
__end_of___lldiv                            text87       00A004
__end_of___llmod                            text86       00A2C0
__end_of___lltoft                           text85       00A896
__end_of___lmul                             text33       00A98C
__end_of___lwtoft                           text23       00B24A
__end_of___wmul                             text79       00AFFA
__end_of__div_to_l_                         text84       0084D4
__end_of__initialization                    cinit        009C02
__end_of__npowers_                          mediumconst  00EB9A
__end_of__powers_                           mediumconst  00EBC1
__end_of__tdiv_to_l_                        text83       008340
__end_of_cleanBuffer                        text103      00ABF4
__end_of_cleanBuffer16bit                   text54       00AB3E
__end_of_delayUS                            text98       00ACA2
__end_of_dpowers                            mediumconst  00EB73
__end_of_fround                             text78       007748
__end_of_hexpowers                          mediumconst  00EBE1
__end_of_high_isr                           intcode_body 005A70
__end_of_isdigit                            text77       00B1F0
__end_of_low_isr                            intcodelo    0001CC
__end_of_lowercaseChar                      text73       00B276
__end_of_lowercaseString                    text5        00ADD2
__end_of_main                               text0        006082
__end_of_scale                              text76       006586
__end_of_sprintf                            text75       003FE8
__end_ofi1_BlueConnected                    text115      00B496
__end_ofi1_ReadUSART                        text114      00B3A6
__end_ofi1_UARTchar                         text118      00B21E
__end_ofi1_UARTchar_CONST                   text112      00B162
__end_ofi1_UARTstring                       text113      00B316
__end_ofi1_UARTstring_CONST                 text111      00B1C2
__end_ofi1_delayUS                          text119      00AF16
__end_ofi2_ReadIRpin                        text123      00B4A4
__end_ofi2_ResetTimer0                      text122      00B4CC
__end_ofi2_cleanBuffer16bit                 text121      00AE9A
__initialization                            cinit        009B38
__mediumconst                               mediumconst  00EB4A
__npowers_                                  mediumconst  00EB73
__pbssBANK0                                 bssBANK0     0000F8
__pbssBANK2                                 bssBANK2     00028C
__pbssBANK3                                 bssBANK3     0003E5
__pbssBANK4                                 bssBANK4     000400
__pbssBANK5                                 bssBANK5     000532
__pbssBANK6                                 bssBANK6     000600
__pbssCOMRAM                                bssCOMRAM    000040
__pcinit                                    cinit        009B38
__pcstackBANK0                              cstackBANK0  000060
__pcstackBANK1                              cstackBANK1  000100
__pcstackBANK2                              cstackBANK2  000200
__pcstackBANK3                              cstackBANK3  000300
__pcstackCOMRAM                             cstackCOMRAM 000001
__pdataBANK0                                dataBANK0    0000FC
__pdataBANK3                                dataBANK3    0003F1
__pdataBANK5                                dataBANK5    000500
__pdataCOMRAM                               dataCOMRAM   000058
__pidataBANK0                               idataBANK0   00B4E0
__pidataBANK3                               idataBANK3   00B4E4
__pidataBANK5                               idataBANK5   00B09A
__pidataCOMRAM                              idataCOMRAM  00B4E8
__pintcode                                  intcode      000008
__pintcode_body                             intcode_body 00544C
__pintcodelo                                intcodelo    000018
__pmediumconst                              mediumconst  00EB4A
__powers_                                   mediumconst  00EB9A
__ptext0                                    text0        005A70
__ptext1                                    text1        007196
__ptext10                                   text10       00A5E0
__ptext100                                  text100      00B334
__ptext101                                  text101      00B46C
__ptext102                                  text102      00A704
__ptext103                                  text103      00AB9A
__ptext104                                  text104      00B404
__ptext105                                  text105      00B37A
__ptext106                                  text106      00B47A
__ptext107                                  text107      00B3BA
__ptext108                                  text108      00ADD2
__ptext109                                  text109      00B4EC
__ptext11                                   text11       00A98C
__ptext111                                  text111      00B192
__ptext112                                  text112      00B130
__ptext113                                  text113      00B2F0
__ptext114                                  text114      00B390
__ptext115                                  text115      00B488
__ptext116                                  text116      00B34C
__ptext117                                  text117      00B2C8
__ptext118                                  text118      00B1F0
__ptext119                                  text119      00AED8
__ptext12                                   text12       007C1E
__ptext121                                  text121      00AE58
__ptext122                                  text122      00B4C2
__ptext123                                  text123      00B496
__ptext124                                  text124      00B4CC
__ptext125                                  text125      00B4D6
__ptext126                                  text126      006E6A
__ptext13                                   text13       0079C6
__ptext14                                   text14       00AE9A
__ptext15                                   text15       009884
__ptext16                                   text16       00B3CE
__ptext17                                   text17       00B4A4
__ptext18                                   text18       00A4A4
__ptext19                                   text19       00A78E
__ptext2                                    text2        00B426
__ptext20                                   text20       003FE8
__ptext21                                   text21       00B3E0
__ptext22                                   text22       00A542
__ptext23                                   text23       00B21E
__ptext24                                   text24       008A94
__ptext25                                   text25       00B4EA
__ptext26                                   text26       00A2C0
__ptext27                                   text27       00AFFA
__ptext28                                   text28       00B066
__ptext29                                   text29       00B316
__ptext3                                    text3        00ACA2
__ptext30                                   text30       00932A
__ptext31                                   text31       006A0C
__ptext32                                   text32       006586
__ptext33                                   text33       00A912
__ptext34                                   text34       00B0CC
__ptext35                                   text35       008D38
__ptext36                                   text36       009CD8
__ptext37                                   text37       00A16E
__ptext38                                   text38       00A004
__ptext39                                   text39       0084D4
__ptext4                                    text4        0001D0
__ptext40                                   text40       007E1E
__ptext41                                   text41       009E74
__ptext42                                   text42       009A5C
__ptext43                                   text43       009448
__ptext44                                   text44       009566
__ptext45                                   text45       00AA7A
__ptext46                                   text46       00A362
__ptext47                                   text47       00A896
__ptext48                                   text48       00B434
__ptext49                                   text49       00B3A6
__ptext5                                    text5        00AD8E
__ptext50                                   text50       00B4AE
__ptext51                                   text51       00B442
__ptext52                                   text52       00B450
__ptext53                                   text53       00AD46
__ptext54                                   text54       00AAE0
__ptext55                                   text55       00B4B8
__ptext56                                   text56       00B45E
__ptext57                                   text57       00B416
__ptext58                                   text58       00AA04
__ptext59                                   text59       00A404
__ptext6                                    text6        00A674
__ptext60                                   text60       00967C
__ptext61                                   text61       008FC0
__ptext62                                   text62       00978A
__ptext63                                   text63       00865C
__ptext64                                   text64       00AF16
__ptext65                                   text65       00AB3E
__ptext66                                   text66       00B364
__ptext67                                   text67       00B276
__ptext68                                   text68       00ABF4
__ptext69                                   text69       004C66
__ptext7                                    text7        00AE16
__ptext70                                   text70       00B2A0
__ptext71                                   text71       00B030
__ptext72                                   text72       007FEC
__ptext73                                   text73       00B24A
__ptext74                                   text74       008938
__ptext75                                   text75       00306E
__ptext76                                   text76       006082
__ptext77                                   text77       00B1C2
__ptext78                                   text78       007470
__ptext79                                   text79       00AFC2
__ptext8                                    text8        00AF8A
__ptext80                                   text80       0087CC
__ptext81                                   text81       00A0BA
__ptext82                                   text82       009C08
__ptext83                                   text83       00819A
__ptext84                                   text84       008340
__ptext85                                   text85       00A816
__ptext86                                   text86       00A21C
__ptext87                                   text87       009F3E
__ptext88                                   text88       008BE6
__ptext89                                   text89       00ACF6
__ptext9                                    text9        00920C
__ptext90                                   text90       007748
__ptext91                                   text91       0090EC
__ptext92                                   text92       00B162
__ptext93                                   text93       009DA6
__ptext94                                   text94       00B0FE
__ptext95                                   text95       00AF50
__ptext96                                   text96       008E86
__ptext97                                   text97       00997A
__ptext98                                   text98       00AC4C
__ptext99                                   text99       00B3F2
__ramtop                                    ramtop       001000
__size_of_BlueConnected                     (abs)        000000
__size_of_BluetoothConfigured               (abs)        000000
__size_of_BluetoothInitialSetup             (abs)        000000
__size_of_BufferCopy                        (abs)        000000
__size_of_CheckReceivingIR                  (abs)        000000
__size_of_ClearUSART                        (abs)        000000
__size_of_ConfigureOscillator               (abs)        000000
__size_of_DecodeNEC                         (abs)        000000
__size_of_DisplayRF_Channel                 (abs)        000000
__size_of_EEPROM_UNLOCK                     (abs)        000000
__size_of_EEPROMinitialized                 (abs)        000000
__size_of_EncodeNEC                         (abs)        000000
__size_of_EnterCommandMode                  (abs)        000000
__size_of_EraseScreen                       (abs)        000000
__size_of_GetEEPROM1                        (abs)        000000
__size_of_GetEEPROM2                        (abs)        000000
__size_of_GetMemoryChar                     (abs)        000000
__size_of_GetMemoryLong                     (abs)        000000
__size_of_GetNumber                         (abs)        000000
__size_of_GetNumberUnsigned                 (abs)        000000
__size_of_GetStringAfterComma               (abs)        000000
__size_of_IRrawToNEC                        (abs)        000000
__size_of_InitADC                           (abs)        000000
__size_of_InitApp                           (abs)        000000
__size_of_InitBluetooth                     (abs)        000000
__size_of_InitIR                            (abs)        000000
__size_of_InitTimer0                        (abs)        000000
__size_of_InitTimer1                        (abs)        000000
__size_of_InitTimer2                        (abs)        000000
__size_of_InitTimer3                        (abs)        000000
__size_of_InitTimers                        (abs)        000000
__size_of_InitUART                          (abs)        000000
__size_of_Init_System                       (abs)        000000
__size_of_InternalADC_Read                  (abs)        000000
__size_of_IsAlphaNumeric                    (abs)        000000
__size_of_IsAlphaNumericString              (abs)        000000
__size_of_IsCharacter                       (abs)        000000
__size_of_IsLetter                          (abs)        000000
__size_of_IsNumber                          (abs)        000000
__size_of_LEDTimerON                        (abs)        000000
__size_of_Local_CloseUSART                  (abs)        000000
__size_of_OpenUSART                         (abs)        000000
__size_of_ReadCodeButtons                   (abs)        000000
__size_of_ReadEEPROM_1Byte                  (abs)        000000
__size_of_ReadIRpin                         (abs)        000000
__size_of_ReadPushButton                    (abs)        000000
__size_of_ReadUSART                         (abs)        000000
__size_of_ReadVoltage                       (abs)        000000
__size_of_ResetADC                          (abs)        000000
__size_of_ResetBlue                         (abs)        000000
__size_of_ResetTimer0                       (abs)        000000
__size_of_ResetTimer1                       (abs)        000000
__size_of_ResetTimer3                       (abs)        000000
__size_of_Reverse_4Byte                     (abs)        000000
__size_of_Reverse_Byte                      (abs)        000000
__size_of_Round                             (abs)        000000
__size_of_SendNEC_bytes                     (abs)        000000
__size_of_SendNEC_wait                      (abs)        000000
__size_of_SendRF                            (abs)        000000
__size_of_SendRF_Channel                    (abs)        000000
__size_of_SendRF_wait                       (abs)        000000
__size_of_SetEEPROM1                        (abs)        000000
__size_of_SetEEPROM2                        (abs)        000000
__size_of_SetEEPROMdefault                  (abs)        000000
__size_of_SetMemoryChar                     (abs)        000000
__size_of_SetMemoryLong                     (abs)        000000
__size_of_SetTimer0                         (abs)        000000
__size_of_StringAddEqual                    (abs)        000000
__size_of_StringContains                    (abs)        000000
__size_of_StringContainsCaseInsensitive     (abs)        000000
__size_of_StringMatch                       (abs)        000000
__size_of_StringMatchCaseInsensitive        (abs)        000000
__size_of_SyncEEPROMToGlobal                (abs)        000000
__size_of_SyncGlobalToEEPROM                (abs)        000000
__size_of_UARTchar                          (abs)        000000
__size_of_UARTchar_CONST                    (abs)        000000
__size_of_UARTcommandMenu                   (abs)        000000
__size_of_UARTstring                        (abs)        000000
__size_of_UARTstringCRLN                    (abs)        000000
__size_of_UARTstringCRLN_CONST              (abs)        000000
__size_of_UARTstring_CONST                  (abs)        000000
__size_of_UseBluetooth                      (abs)        000000
__size_of_UseIRCode                         (abs)        000000
__size_of_VoltageDividerOFF                 (abs)        000000
__size_of_WaitForIRsignal                   (abs)        000000
__size_of_WriteEEPROM_1Byte                 (abs)        000000
__size_of___altoft                          (abs)        000000
__size_of___awdiv                           (abs)        000000
__size_of___awmod                           (abs)        000000
__size_of___ftadd                           (abs)        000000
__size_of___ftdiv                           (abs)        000000
__size_of___ftge                            (abs)        000000
__size_of___ftmul                           (abs)        000000
__size_of___ftneg                           (abs)        000000
__size_of___ftpack                          (abs)        000000
__size_of___ftsub                           (abs)        000000
__size_of___fttol                           (abs)        000000
__size_of___lldiv                           (abs)        000000
__size_of___llmod                           (abs)        000000
__size_of___lltoft                          (abs)        000000
__size_of___lmul                            (abs)        000000
__size_of___lwtoft                          (abs)        000000
__size_of___wmul                            (abs)        000000
__size_of__div_to_l_                        (abs)        000000
__size_of__tdiv_to_l_                       (abs)        000000
__size_of_cleanBuffer                       (abs)        000000
__size_of_cleanBuffer16bit                  (abs)        000000
__size_of_delayUS                           (abs)        000000
__size_of_fround                            (abs)        000000
__size_of_high_isr                          (abs)        000000
__size_of_isdigit                           (abs)        000000
__size_of_low_isr                           (abs)        000000
__size_of_lowercaseChar                     (abs)        000000
__size_of_lowercaseString                   (abs)        000000
__size_of_main                              (abs)        000000
__size_of_scale                             (abs)        000000
__size_of_sprintf                           (abs)        000000
__size_ofi1_BlueConnected                   (abs)        000000
__size_ofi1_ReadUSART                       (abs)        000000
__size_ofi1_UARTchar                        (abs)        000000
__size_ofi1_UARTchar_CONST                  (abs)        000000
__size_ofi1_UARTstring                      (abs)        000000
__size_ofi1_UARTstring_CONST                (abs)        000000
__size_ofi1_delayUS                         (abs)        000000
__size_ofi2_ReadIRpin                       (abs)        000000
__size_ofi2_ResetTimer0                     (abs)        000000
__size_ofi2_cleanBuffer16bit                (abs)        000000
__smallconst                                smallconst   000000
__tdiv_to_l_                                text83       00819A
__tdiv_to_l_@cntr                           cstackBANK0  000070
__tdiv_to_l_@exp1                           cstackBANK0  000071
__tdiv_to_l_@f1                             cstackBANK0  000063
__tdiv_to_l_@f2                             cstackBANK0  000066
__tdiv_to_l_@quot                           cstackBANK0  00006C
_cleanBuffer                                text103      00AB9A
_cleanBuffer16bit                           text54       00AAE0
_delayUS                                    text98       00AC4C
_dpowers                                    mediumconst  00EB4B
_fround                                     text78       007470
_fround$4124                                cstackBANK0  000092
_fround$4125                                cstackBANK0  00008F
_hexpowers                                  mediumconst  00EBC1
_high_isr                                   intcode      000008
_isdigit                                    text77       00B1C2
_isdigit$3778                               cstackBANK0  000064
_low_isr                                    intcodelo    000018
_lowercaseChar                              text73       00B24A
_lowercaseString                            text5        00AD8E
_main                                       text0        005A70
_scale                                      text76       006082
_scale$4126                                 cstackBANK0  00008F
_sprintf                                    text75       00306E
_sprintf$4127                               cstackBANK0  0000C5
cleanBuffer16bit@count                      cstackBANK0  000065
cleanBuffer16bit@data                       cstackBANK0  000063
cleanBuffer16bit@i                          cstackBANK0  00006A
cleanBuffer@count                           cstackBANK0  000065
cleanBuffer@data                            cstackBANK0  000063
cleanBuffer@i                               cstackBANK0  00006A
delayUS@US                                  cstackBANK0  000063
delayUS@i                                   cstackBANK0  000068
end_of_initialization                       cinit        009C02
fround@prec                                 cstackBANK0  000095
high_isr@IRpin                              cstackBANK0  000060
high_isr@Time0                              cstackBANK0  000061
i1ReadUSART@data                            cstackCOMRAM 000001
i1UARTchar@data                             cstackCOMRAM 00000A
i1UARTchar_CONST@data                       cstackCOMRAM 00000A
i1UARTchar_CONST@temp                       cstackCOMRAM 00000B
i1UARTstring@data                           cstackCOMRAM 00000B
i1UARTstring_CONST@data                     cstackCOMRAM 00000C
i1_BlueConnected                            text115      00B488
i1_ReadUSART                                text114      00B390
i1_UARTchar                                 text118      00B1F0
i1_UARTchar_CONST                           text112      00B130
i1_UARTstring                               text113      00B2F0
i1_UARTstring_CONST                         text111      00B192
i1_delayUS                                  text119      00AED8
i1delayUS@US                                cstackCOMRAM 000001
i1delayUS@i                                 cstackCOMRAM 000006
i2_ReadIRpin                                text123      00B496
i2_ResetTimer0                              text122      00B4C2
i2_cleanBuffer16bit                         text121      00AE58
i2cleanBuffer16bit@count                    cstackCOMRAM 000022
i2cleanBuffer16bit@data                     cstackCOMRAM 000020
i2cleanBuffer16bit@i                        cstackCOMRAM 000027
int_func                                    intcode_body 00544C
intlevel0                                   text         000000
intlevel1                                   text         000000
intlevel2                                   text         000000
intlevel3                                   text         000000
isdigit@c                                   cstackBANK0  000065
low_isr@data                                cstackCOMRAM 00001F
lowercaseChar@Input                         cstackBANK0  000063
lowercaseString@Input                       cstackBANK0  000063
main@BluetoothString                        cstackBANK3  000364
main@BluetoothStringPos                     cstackBANK3  0003DF
main@Bluetoothtask                          cstackBANK3  0003DE
main@BroadcastTEMP                          cstackBANK3  0003C8
main@Connected                              cstackBANK3  0003E2
main@ConnectedOLD                           cstackBANK3  0003E0
main@IRtask                                 cstackBANK3  0003DD
main@VoltageStatus                          cstackBANK3  0003E4
main@VoltageStatusOLD                       cstackBANK3  0003E1
main@buf                                    cstackBANK3  000300
main@i                                      cstackBANK3  0003E3
scale@scl                                   cstackBANK0  000092
sprintf@ap                                  cstackBANK0  0000CD
sprintf@c                                   cstackBANK0  0000E2
sprintf@cp                                  cstackBANK0  0000C9
sprintf@exp                                 cstackBANK0  0000D5
sprintf@f                                   cstackBANK0  0000B3
sprintf@flag                                cstackBANK0  0000E0
sprintf@fval                                cstackBANK0  0000DB
sprintf@idx                                 cstackBANK0  0000C8
sprintf@len                                 cstackBANK0  0000CB
sprintf@prec                                cstackBANK0  0000CF
sprintf@sp                                  cstackBANK0  0000B1
sprintf@tmpval                              cstackBANK0  0000D1
sprintf@val                                 cstackBANK0  0000D7
sprintf@width                               cstackBANK0  0000DE
stackhi                                     (abs)        000F5F
stacklo                                     (abs)        0006C8
start                                       init         0001CC
start_initialization                        cinit        009B38


FUNCTION INFORMATION:

 *************** function _main *****************
 Defined at:
		line 96 in file "main.c"
 Parameters:    Size  Location     Type
		None
 Auto vars:     Size  Location     Type
  BluetoothStr  100  100[BANK3 ] unsigned char [100]
  buf           100    0[BANK3 ] unsigned char [100]
  BroadcastTEM   21  200[BANK3 ] unsigned char [21]
  VoltageStatu    1  228[BANK3 ] unsigned char 
  i               1  227[BANK3 ] unsigned char 
  Connected       1  226[BANK3 ] unsigned char 
  VoltageStatu    1  225[BANK3 ] unsigned char 
  ConnectedOLD    1  224[BANK3 ] unsigned char 
  BluetoothStr    1  223[BANK3 ] unsigned char 
  Bluetoothtas    1  222[BANK3 ] unsigned char 
  IRtask          1  221[BANK3 ] unsigned char 
 Return value:  Size  Location     Type
		None               void
 Registers used:
		wreg, fsr0l, fsr0h, fsr1l, fsr1h, fsr2l, fsr2h, status,2, status,0, tblptrl, tblptrh, tblptru, prodl, prodh, cstack
 Tracked objects:
		On entry : 
		On exit  : 
		Unchanged: 
 Data sizes:     COMRAM   BANK0   BANK1   BANK2   BANK3   BANK4   BANK5   BANK6   BANK7   BANK8   BANK9  BANK10  BANK11  BANK12  BANK13  BANK14  BANK15
      Params:         0       0       0       0       0       0       0       0       0       0       0       0       0       0       0       0       0
      Locals:         0       0       0       0     229       0       0       0       0       0       0       0       0       0       0       0       0
      Temps:          0       0       0       0       0       0       0       0       0       0       0       0       0       0       0       0       0
      Totals:         0       0       0       0     229       0       0       0       0       0       0       0       0       0       0       0       0
Total ram usage:      229 bytes
 Hardware stack levels required when called:   14
 This function calls:
		_BlueConnected
		_BufferCopy
		_ClearUSART
		_ConfigureOscillator
		_InitApp
		_Init_System
		_LEDTimerON
		_ReadIRpin
		_ReadVoltage
		_UARTchar
		_UARTchar_CONST
		_UARTstringCRLN
		_UARTstringCRLN_CONST
		_UARTstring_CONST
		_UseBluetooth
		_UseIRCode
		___ftadd
		___ftge
		___ftsub
		_cleanBuffer
		_delayUS
		_sprintf
 This function is called by:
		Startup code after reset
 This function uses a non-reentrant model


 *************** function _UseIRCode *****************
 Defined at:
		line 273 in file "IR.c"
 Parameters:    Size  Location     Type
  Code            2  125[BANK0 ] PTR unsigned char 
		 -> IR_New_Code(1), 
  NEC             4  127[BANK0 ] unsigned long 
 Auto vars:     Size  Location     Type
  i               1  136[BANK0 ] unsigned char 
  j               1  135[BANK0 ] unsigned char 
  found           1  134[BANK0 ] unsigned char 
 Return value:  Size  Location     Type
		None               void
 Registers used:
		wreg, fsr0l, fsr0h, fsr2l, fsr2h, status,2, status,0, tblptrl, tblptrh, tblptru, prodl, prodh, cstack
 Tracked objects:
		On entry : 
		On exit  : 
		Unchanged: 
 Data sizes:     COMRAM   BANK0   BANK1   BANK2   BANK3   BANK4   BANK5   BANK6   BANK7   BANK8   BANK9  BANK10  BANK11  BANK12  BANK13  BANK14  BANK15
      Params:         0       6       0       0       0       0       0       0       0       0       0       0       0       0       0       0       0
      Locals:         0       3       0       0       0       0       0       0       0       0       0       0       0       0       0       0       0
      Temps:          0       3       0       0       0       0       0       0       0       0       0       0       0       0       0       0       0
      Totals:         0      12       0       0       0       0       0       0       0       0       0       0       0       0       0       0       0
Total ram usage:       12 bytes
 Hardware stack levels used:    1
 Hardware stack levels required when called:   11
 This function calls:
		_DecodeNEC
		_LEDTimerON
		_ReadCodeButtons
		_ReadIRpin
		_ReadPushButton
		_SendRF_Channel
		_SyncGlobalToEEPROM
		_delayUS
 This function is called by:
		_main
 This function uses a non-reentrant model


 *************** function _ReadPushButton *****************
 Defined at:
		line 52 in file "Button.c"
 Parameters:    Size  Location     Type
		None
 Auto vars:     Size  Location     Type
		None
 Return value:  Size  Location     Type
                  1    wreg      unsigned char 
 Registers used:
		wreg
 Tracked objects:
		On entry : 
		On exit  : 
		Unchanged: 
 Data sizes:     COMRAM   BANK0   BANK1   BANK2   BANK3   BANK4   BANK5   BANK6   BANK7   BANK8   BANK9  BANK10  BANK11  BANK12  BANK13  BANK14  BANK15
      Params:         0       0       0       0       0       0       0       0       0       0       0       0       0       0       0       0       0
      Locals:         0       0       0       0       0       0       0       0       0       0       0       0       0       0       0       0       0
      Temps:          0       0       0       0       0       0       0       0       0       0       0       0       0       0       0       0       0
      Totals:         0       0       0       0       0       0       0       0       0       0       0       0       0       0       0       0       0
Total ram usage:        0 bytes
 Hardware stack levels used:    1
 Hardware stack levels required when called:    6
 This function calls:
		Nothing
 This function is called by:
		_UseIRCode
 This function uses a non-reentrant model


 *************** function _ReadCodeButtons *****************
 Defined at:
		line 67 in file "Button.c"
 Parameters:    Size  Location     Type
		None
 Auto vars:     Size  Location     Type
  temp            1   12[BANK0 ] unsigned char 
 Return value:  Size  Location     Type
                  1    wreg      unsigned char 
 Registers used:
		wreg, status,2, status,0, cstack
 Tracked objects:
		On entry : 
		On exit  : 
		Unchanged: 
 Data sizes:     COMRAM   BANK0   BANK1   BANK2   BANK3   BANK4   BANK5   BANK6   BANK7   BANK8   BANK9  BANK10  BANK11  BANK12  BANK13  BANK14  BANK15
      Params:         0       0       0       0       0       0       0       0       0       0       0       0       0       0       0       0       0
      Locals:         0       1       0       0       0       0       0       0       0       0       0       0       0       0       0       0       0
      Temps:          0       0       0       0       0       0       0       0       0       0       0       0       0       0       0       0       0
      Totals:         0       1       0       0       0       0       0       0       0       0       0       0       0       0       0       0       0
Total ram usage:        1 bytes
 Hardware stack levels used:    1
 Hardware stack levels required when called:    7
 This function calls:
		_delayUS
 This function is called by:
		_UseIRCode
 This function uses a non-reentrant model


 *************** function _UseBluetooth *****************
 Defined at:
		line 445 in file "Bluetooth.c"
 Parameters:    Size  Location     Type
  String          2  137[BANK0 ] PTR unsigned char 
		 -> main@BluetoothString(100), 
  StringPos       1  139[BANK0 ] unsigned char 
 Auto vars:     Size  Location     Type
  buf           100    0[BANK2 ] unsigned char [100]
  rfchannelSTR   10  100[BANK2 ] unsigned char [10]
  temp            4  134[BANK2 ] unsigned long 
  EnteredNEC      4  122[BANK2 ] unsigned long 
  SerialNumber    4  115[BANK2 ] long 
  tempNec         4  111[BANK2 ] unsigned long 
  i               1  139[BANK2 ] unsigned char 
  j               1  138[BANK2 ] unsigned char 
  NecCommand      1  133[BANK2 ] unsigned char 
  NecAddress      1  132[BANK2 ] unsigned char 
  k               1  131[BANK2 ] unsigned char 
  EmptyPlace      1  130[BANK2 ] unsigned char 
  rfconf          1  129[BANK2 ] unsigned char 
  timeout         1  128[BANK2 ] unsigned char 
  tempRFArray     1  127[BANK2 ] unsigned char 
  ok              1  126[BANK2 ] unsigned char 
  set             1  121[BANK2 ] unsigned char 
  device          1  120[BANK2 ] unsigned char 
  system          1  119[BANK2 ] unsigned char 
  ReceivedStri    1  110[BANK2 ] unsigned char 
 Return value:  Size  Location     Type
                  1    wreg      unsigned char 
 Registers used:
		wreg, fsr0l, fsr0h, fsr1l, fsr1h, fsr2l, fsr2h, status,2, status,0, tblptrl, tblptrh, tblptru, prodl, prodh, cstack
 Tracked objects:
		On entry : 
		On exit  : 
		Unchanged: 
 Data sizes:     COMRAM   BANK0   BANK1   BANK2   BANK3   BANK4   BANK5   BANK6   BANK7   BANK8   BANK9  BANK10  BANK11  BANK12  BANK13  BANK14  BANK15
      Params:         0       3       0       0       0       0       0       0       0       0       0       0       0       0       0       0       0
      Locals:         0       0       0     140       0       0       0       0       0       0       0       0       0       0       0       0       0
      Temps:          0      12       0       0       0       0       0       0       0       0       0       0       0       0       0       0       0
      Totals:         0      15       0     140       0       0       0       0       0       0       0       0       0       0       0       0       0
Total ram usage:      155 bytes
 Hardware stack levels used:    1
 Hardware stack levels required when called:   12
 This function calls:
		_BluetoothInitialSetup
		_BufferCopy
		_ClearUSART
		_DecodeNEC
		_DisplayRF_Channel
		_EncodeNEC
		_GetNumber
		_GetNumberUnsigned
		_GetStringAfterComma
		_IsAlphaNumericString
		_ReadVoltage
		_SendNEC_wait
		_SendRF_Channel
		_SendRF_wait
		_SetEEPROM2
		_StringAddEqual
		_StringContains
		_StringContainsCaseInsensitive
		_StringMatch
		_StringMatchCaseInsensitive
		_SyncEEPROMToGlobal
		_SyncGlobalToEEPROM
		_UARTchar
		_UARTchar_CONST
		_UARTcommandMenu
		_UARTstring
		_UARTstringCRLN
		_UARTstringCRLN_CONST
		_UARTstring_CONST
		_WaitForIRsignal
		_cleanBuffer
		_delayUS
		_lowercaseString
		_sprintf
 This function is called by:
		_main
 This function uses a non-reentrant model


 *************** function _lowercaseString *****************
 Defined at:
		line 406 in file "MISC.c"
 Parameters:    Size  Location     Type
  Input           2    3[BANK0 ] PTR unsigned char 
		 -> UseBluetooth@rfchannelSTR(10), 
 Auto vars:     Size  Location     Type
		None
 Return value:  Size  Location     Type
		None               void
 Registers used:
		wreg, fsr2l, fsr2h, status,2, status,0
 Tracked objects:
		On entry : 
		On exit  : 
		Unchanged: 
 Data sizes:     COMRAM   BANK0   BANK1   BANK2   BANK3   BANK4   BANK5   BANK6   BANK7   BANK8   BANK9  BANK10  BANK11  BANK12  BANK13  BANK14  BANK15
      Params:         0       2       0       0       0       0       0       0       0       0       0       0       0       0       0       0       0
      Locals:         0       0       0       0       0       0       0       0       0       0       0       0       0       0       0       0       0
      Temps:          0       1       0       0       0       0       0       0       0       0       0       0       0       0       0       0       0
      Totals:         0       3       0       0       0       0       0       0       0       0       0       0       0       0       0       0       0
Total ram usage:        3 bytes
 Hardware stack levels used:    1
 Hardware stack levels required when called:    6
 This function calls:
		Nothing
 This function is called by:
		_UseBluetooth
 This function uses a non-reentrant model


 *************** function _WaitForIRsignal *****************
 Defined at:
		line 1483 in file "Bluetooth.c"
 Parameters:    Size  Location     Type
		None
 Auto vars:     Size  Location     Type
  timeout         1   18[BANK0 ] unsigned char 
 Return value:  Size  Location     Type
                  1    wreg      unsigned char 
 Registers used:
		wreg, status,2, status,0, tblptrl, tblptrh, tblptru, cstack
 Tracked objects:
		On entry : 
		On exit  : 
		Unchanged: 
 Data sizes:     COMRAM   BANK0   BANK1   BANK2   BANK3   BANK4   BANK5   BANK6   BANK7   BANK8   BANK9  BANK10  BANK11  BANK12  BANK13  BANK14  BANK15
      Params:         0       0       0       0       0       0       0       0       0       0       0       0       0       0       0       0       0
      Locals:         0       1       0       0       0       0       0       0       0       0       0       0       0       0       0       0       0
      Temps:          0       0       0       0       0       0       0       0       0       0       0       0       0       0       0       0       0
      Totals:         0       1       0       0       0       0       0       0       0       0       0       0       0       0       0       0       0
Total ram usage:        1 bytes
 Hardware stack levels used:    1
 Hardware stack levels required when called:   10
 This function calls:
		_LEDTimerON
		_UARTchar_CONST
		_UARTstringCRLN_CONST
		_UARTstring_CONST
		_delayUS
 This function is called by:
		_UseBluetooth
 This function uses a non-reentrant model


 *************** function _UARTstringCRLN_CONST *****************
 Defined at:
		line 323 in file "UART.c"
 Parameters:    Size  Location     Type
  data            2   16[BANK0 ] PTR const unsigned char 
		 -> STR_196(36), STR_194(27), STR_178(13), STR_141(13), 
		 -> STR_138(21), STR_127(17), STR_123(5), STR_120(23), 
		 -> STR_119(29), STR_114(57), STR_113(64), STR_112(41), 
		 -> STR_111(53), STR_110(57), STR_108(57), STR_105(24), 
		 -> STR_104(34), STR_103(44), STR_102(18), STR_100(44), 
		 -> STR_99(46), STR_96(46), STR_93(29), STR_92(18), 
		 -> STR_91(29), STR_83(46), STR_82(47), STR_81(44), 
		 -> STR_80(50), STR_79(50), STR_77(31), STR_76(40), 
		 -> STR_75(37), STR_74(46), STR_73(37), STR_63(18), 
		 -> STR_62(14), STR_61(9), STR_60(20), STR_59(16), 
		 -> STR_58(7), STR_57(35), STR_56(37), STR_53(47), 
		 -> STR_48(17), STR_47(9), STR_46(18), STR_45(9), 
		 -> STR_44(22), STR_43(11), STR_42(20), STR_41(7), 
		 -> STR_40(31), STR_38(33), STR_34(32), STR_30(31), 
		 -> STR_29(31), STR_27(29), STR_25(29), SYNTAX_ERR(14), 
		 -> STR_3(16), STR_2(24), ProjectName(26), 
 Auto vars:     Size  Location     Type
		None
 Return value:  Size  Location     Type
		None               void
 Registers used:
		wreg, status,2, status,0, tblptrl, tblptrh, tblptru, cstack
 Tracked objects:
		On entry : 
		On exit  : 
		Unchanged: 
 Data sizes:     COMRAM   BANK0   BANK1   BANK2   BANK3   BANK4   BANK5   BANK6   BANK7   BANK8   BANK9  BANK10  BANK11  BANK12  BANK13  BANK14  BANK15
      Params:         0       2       0       0       0       0       0       0       0       0       0       0       0       0       0       0       0
      Locals:         0       0       0       0       0       0       0       0       0       0       0       0       0       0       0       0       0
      Temps:          0       0       0       0       0       0       0       0       0       0       0       0       0       0       0       0       0
      Totals:         0       2       0       0       0       0       0       0       0       0       0       0       0       0       0       0       0
Total ram usage:        2 bytes
 Hardware stack levels used:    1
 Hardware stack levels required when called:    9
 This function calls:
		_UARTchar_CONST
		_UARTstring_CONST
 This function is called by:
		_main
		_UseBluetooth
		_WaitForIRsignal
 This function uses a non-reentrant model


 *************** function _UARTstringCRLN *****************
 Defined at:
		line 307 in file "UART.c"
 Parameters:    Size  Location     Type
  data            2   16[BANK0 ] PTR unsigned char 
		 -> UseBluetooth@buf(100), BluetoothFirmware2(30), BluetoothFirmware1(30), main@buf(100), 
 Auto vars:     Size  Location     Type
		None
 Return value:  Size  Location     Type
		None               void
 Registers used:
		wreg, fsr2l, fsr2h, status,2, status,0, tblptrl, tblptrh, tblptru, cstack
 Tracked objects:
		On entry : 
		On exit  : 
		Unchanged: 
 Data sizes:     COMRAM   BANK0   BANK1   BANK2   BANK3   BANK4   BANK5   BANK6   BANK7   BANK8   BANK9  BANK10  BANK11  BANK12  BANK13  BANK14  BANK15
      Params:         0       2       0       0       0       0       0       0       0       0       0       0       0       0       0       0       0
      Locals:         0       0       0       0       0       0       0       0       0       0       0       0       0       0       0       0       0
      Temps:          0       0       0       0       0       0       0       0       0       0       0       0       0       0       0       0       0
      Totals:         0       2       0       0       0       0       0       0       0       0       0       0       0       0       0       0       0
Total ram usage:        2 bytes
 Hardware stack levels used:    1
 Hardware stack levels required when called:    9
 This function calls:
		_UARTchar
		_UARTstring_CONST
 This function is called by:
		_main
		_UseBluetooth
 This function uses a non-reentrant model


 *************** function _UARTcommandMenu *****************
 Defined at:
		line 339 in file "UART.c"
 Parameters:    Size  Location     Type
  Command         2   16[BANK0 ] PTR const unsigned char 
		 -> STR_179(7), STR_176(5), STR_174(13), STR_172(13), 
		 -> STR_170(13), STR_168(13), STR_166(13), STR_164(13), 
		 -> STR_162(16), STR_160(13), STR_158(11), STR_156(11), 
		 -> STR_154(11), STR_152(11), STR_150(11), STR_148(11), 
		 -> STR_146(11), STR_139(8), STR_136(22), STR_134(10), 
		 -> STR_132(8), STR_130(6), STR_128(4), Conf2_ChannelH_3_OFF_STR(21), 
		 -> Conf2_ChannelH_3_ON_STR(20), Conf2_ChannelH_2_OFF_STR(21), Conf2_ChannelH_2_ON_STR(20), Conf2_ChannelH_1_OFF_STR(21), 
		 -> Conf2_ChannelH_1_ON_STR(20), Conf2_ChannelD_OFF_STR(19), Conf2_ChannelD_ON_STR(18), Conf2_ChannelB_OFF_STR(19), 
		 -> Conf2_ChannelB_ON_STR(18), Conf1_ChannelF_STR(15), Conf1_ChannelE_STR(15), Conf1_ChannelD_STR(15), 
		 -> UseBluetooth@buf(100), 
  Desc            2   18[BANK0 ] PTR const unsigned char 
		 -> STR_193(32), STR_192(31), STR_191(32), STR_190(31), 
		 -> STR_189(32), STR_188(31), STR_187(20), STR_186(19), 
		 -> STR_185(23), STR_184(22), STR_183(19), STR_182(19), 
		 -> STR_181(19), STR_180(34), STR_177(40), STR_175(50), 
		 -> STR_173(50), STR_171(50), STR_169(50), STR_167(50), 
		 -> STR_165(50), STR_163(44), STR_161(39), STR_159(49), 
		 -> STR_157(49), STR_155(49), STR_153(49), STR_151(49), 
		 -> STR_149(49), STR_147(63), STR_145(24), STR_143(25), 
		 -> STR_140(28), STR_137(33), STR_135(22), STR_133(35), 
		 -> STR_131(32), STR_129(10), 
 Auto vars:     Size  Location     Type
  place           1   26[BANK0 ] unsigned char 
  i               1   25[BANK0 ] unsigned char 
 Return value:  Size  Location     Type
		None               void
 Registers used:
		wreg, fsr0l, fsr0h, status,2, status,0, tblptrl, tblptrh, tblptru, cstack
 Tracked objects:
		On entry : 
		On exit  : 
		Unchanged: 
 Data sizes:     COMRAM   BANK0   BANK1   BANK2   BANK3   BANK4   BANK5   BANK6   BANK7   BANK8   BANK9  BANK10  BANK11  BANK12  BANK13  BANK14  BANK15
      Params:         0       4       0       0       0       0       0       0       0       0       0       0       0       0       0       0       0
      Locals:         0       2       0       0       0       0       0       0       0       0       0       0       0       0       0       0       0
      Temps:          0       5       0       0       0       0       0       0       0       0       0       0       0       0       0       0       0
      Totals:         0      11       0       0       0       0       0       0       0       0       0       0       0       0       0       0       0
Total ram usage:       11 bytes
 Hardware stack levels used:    1
 Hardware stack levels required when called:    9
 This function calls:
		_UARTchar
		_UARTstring_CONST
 This function is called by:
		_UseBluetooth
 This function uses a non-reentrant model


 *************** function _StringMatchCaseInsensitive *****************
 Defined at:
		line 267 in file "MISC.c"
 Parameters:    Size  Location     Type
  This            2    6[BANK0 ] PTR const unsigned char 
		 -> main@BluetoothString(100), 
  That            2    8[BANK0 ] PTR const unsigned char 
		 -> STR_117(8), STR_115(8), STR_106(22), STR_94(10), 
		 -> STR_89(6), Conf2_ChannelH_3_OFF_STR(21), Conf2_ChannelH_3_ON_STR(20), Conf2_ChannelH_2_OFF_STR(21), 
		 -> Conf2_ChannelH_2_ON_STR(20), Conf2_ChannelH_1_OFF_STR(21), Conf2_ChannelH_1_ON_STR(20), Conf2_ChannelD_OFF_STR(19), 
		 -> Conf2_ChannelD_ON_STR(18), Conf2_ChannelB_OFF_STR(19), Conf2_ChannelB_ON_STR(18), Conf1_ChannelF_STR(15), 
		 -> Conf1_ChannelE_STR(15), Conf1_ChannelD_STR(15), STR_22(7), 
 Auto vars:     Size  Location     Type
  tempThat        1   11[BANK0 ] unsigned char 
  tempThis        1   10[BANK0 ] unsigned char 
 Return value:  Size  Location     Type
                  1    wreg      unsigned char 
 Registers used:
		wreg, fsr2l, fsr2h, status,2, status,0, tblptrl, tblptrh, tblptru, cstack
 Tracked objects:
		On entry : 
		On exit  : 
		Unchanged: 
 Data sizes:     COMRAM   BANK0   BANK1   BANK2   BANK3   BANK4   BANK5   BANK6   BANK7   BANK8   BANK9  BANK10  BANK11  BANK12  BANK13  BANK14  BANK15
      Params:         0       4       0       0       0       0       0       0       0       0       0       0       0       0       0       0       0
      Locals:         0       2       0       0       0       0       0       0       0       0       0       0       0       0       0       0       0
      Temps:          0       0       0       0       0       0       0       0       0       0       0       0       0       0       0       0       0
      Totals:         0       6       0       0       0       0       0       0       0       0       0       0       0       0       0       0       0
Total ram usage:        6 bytes
 Hardware stack levels used:    1
 Hardware stack levels required when called:    7
 This function calls:
		_lowercaseChar
 This function is called by:
		_UseBluetooth
 This function uses a non-reentrant model


 *************** function _StringMatch *****************
 Defined at:
		line 240 in file "MISC.c"
 Parameters:    Size  Location     Type
  This            2    3[BANK0 ] PTR const unsigned char 
		 -> ReceivedString(100), main@BluetoothString(100), 
  That            2    5[BANK0 ] PTR const unsigned char 
		 -> STR_125(4), STR_97(5), 
 Auto vars:     Size  Location     Type
		None
 Return value:  Size  Location     Type
                  1    wreg      unsigned char 
 Registers used:
		wreg, fsr2l, fsr2h, status,2, status,0, tblptrl, tblptrh, tblptru
 Tracked objects:
		On entry : 
		On exit  : 
		Unchanged: 
 Data sizes:     COMRAM   BANK0   BANK1   BANK2   BANK3   BANK4   BANK5   BANK6   BANK7   BANK8   BANK9  BANK10  BANK11  BANK12  BANK13  BANK14  BANK15
      Params:         0       4       0       0       0       0       0       0       0       0       0       0       0       0       0       0       0
      Locals:         0       0       0       0       0       0       0       0       0       0       0       0       0       0       0       0       0
      Temps:          0       1       0       0       0       0       0       0       0       0       0       0       0       0       0       0       0
      Totals:         0       5       0       0       0       0       0       0       0       0       0       0       0       0       0       0       0
Total ram usage:        5 bytes
 Hardware stack levels used:    1
 Hardware stack levels required when called:    6
 This function calls:
		Nothing
 This function is called by:
		_UseBluetooth
 This function uses a non-reentrant model


 *************** function _StringAddEqual *****************
 Defined at:
		line 792 in file "MISC.c"
 Parameters:    Size  Location     Type
  Input           2   18[BANK0 ] PTR unsigned char 
		 -> ReceivedString(100), main@BluetoothString(100), 
 Auto vars:     Size  Location     Type
  temp          255    0[BANK1 ] unsigned char [255]
  j               1   25[BANK0 ] unsigned char 
  i               1   24[BANK0 ] unsigned char 
  firstnumber     1   23[BANK0 ] unsigned char 
  NullPosition    1   22[BANK0 ] unsigned char 
 Return value:  Size  Location     Type
                  1    wreg      unsigned char 
 Registers used:
		wreg, fsr1l, fsr1h, fsr2l, fsr2h, status,2, status,0, prodl, prodh, cstack
 Tracked objects:
		On entry : 
		On exit  : 
		Unchanged: 
 Data sizes:     COMRAM   BANK0   BANK1   BANK2   BANK3   BANK4   BANK5   BANK6   BANK7   BANK8   BANK9  BANK10  BANK11  BANK12  BANK13  BANK14  BANK15
      Params:         0       2       0       0       0       0       0       0       0       0       0       0       0       0       0       0       0
      Locals:         0       4     255       0       0       0       0       0       0       0       0       0       0       0       0       0       0
      Temps:          0       2       0       0       0       0       0       0       0       0       0       0       0       0       0       0       0
      Totals:         0       8     255       0       0       0       0       0       0       0       0       0       0       0       0       0       0
Total ram usage:      263 bytes
 Hardware stack levels used:    1
 Hardware stack levels required when called:    8
 This function calls:
		_BufferCopy
		_cleanBuffer
 This function is called by:
		_UseBluetooth
 This function uses a non-reentrant model


 *************** function _SendRF_Channel *****************
 Defined at:
		line 165 in file "RF.c"
 Parameters:    Size  Location     Type
  channel         1    wreg     unsigned char 
 Auto vars:     Size  Location     Type
  channel         1   16[BANK0 ] unsigned char 
 Return value:  Size  Location     Type
		None               void
 Registers used:
		wreg, fsr2l, fsr2h, status,2, status,0, tblptrl, tblptrh, tblptru, prodl, prodh, cstack
 Tracked objects:
		On entry : 
		On exit  : 
		Unchanged: 
 Data sizes:     COMRAM   BANK0   BANK1   BANK2   BANK3   BANK4   BANK5   BANK6   BANK7   BANK8   BANK9  BANK10  BANK11  BANK12  BANK13  BANK14  BANK15
      Params:         0       0       0       0       0       0       0       0       0       0       0       0       0       0       0       0       0
      Locals:         0       1       0       0       0       0       0       0       0       0       0       0       0       0       0       0       0
      Temps:          0       0       0       0       0       0       0       0       0       0       0       0       0       0       0       0       0
      Totals:         0       1       0       0       0       0       0       0       0       0       0       0       0       0       0       0       0
Total ram usage:        1 bytes
 Hardware stack levels used:    1
 Hardware stack levels required when called:    9
 This function calls:
		_SendRF_wait
 This function is called by:
		_UseIRCode
		_UseBluetooth
 This function uses a non-reentrant model


 *************** function _SendRF_wait *****************
 Defined at:
		line 145 in file "RF.c"
 Parameters:    Size  Location     Type
  Code            2   11[BANK0 ] PTR const unsigned char 
		 -> Conf2_ChannelH_3_OFF(16), Conf2_ChannelH_3_ON(16), Conf2_ChannelH_2_OFF(16), Conf2_ChannelH_2_ON(16), 
		 -> Conf2_ChannelH_1_OFF(16), Conf2_ChannelH_1_ON(16), Conf2_ChannelD_OFF(16), Conf2_ChannelD_ON(16), 
		 -> Conf2_ChannelB_OFF(16), Conf2_ChannelB_ON(16), Conf1_ChannelF(12), Conf1_ChannelE(12), 
		 -> Conf1_ChannelD(12), 
  Config          1   13[BANK0 ] unsigned char 
  size            1   14[BANK0 ] unsigned char 
  amount          1   15[BANK0 ] unsigned char 
 Auto vars:     Size  Location     Type
		None
 Return value:  Size  Location     Type
		None               void
 Registers used:
		wreg, fsr2l, fsr2h, status,2, status,0, tblptrl, tblptrh, tblptru, prodl, prodh, cstack
 Tracked objects:
		On entry : 
		On exit  : 
		Unchanged: 
 Data sizes:     COMRAM   BANK0   BANK1   BANK2   BANK3   BANK4   BANK5   BANK6   BANK7   BANK8   BANK9  BANK10  BANK11  BANK12  BANK13  BANK14  BANK15
      Params:         0       5       0       0       0       0       0       0       0       0       0       0       0       0       0       0       0
      Locals:         0       0       0       0       0       0       0       0       0       0       0       0       0       0       0       0       0
      Temps:          0       0       0       0       0       0       0       0       0       0       0       0       0       0       0       0       0
      Totals:         0       5       0       0       0       0       0       0       0       0       0       0       0       0       0       0       0
Total ram usage:        5 bytes
 Hardware stack levels used:    1
 Hardware stack levels required when called:    8
 This function calls:
		_LEDTimerON
		_ReadIRpin
		_SendRF
 This function is called by:
		_UseBluetooth
		_SendRF_Channel
 This function uses a non-reentrant model


 *************** function _SendRF *****************
 Defined at:
		line 68 in file "RF.c"
 Parameters:    Size  Location     Type
  Code            2    3[BANK0 ] PTR const unsigned char 
		 -> Conf2_ChannelH_3_OFF(16), Conf2_ChannelH_3_ON(16), Conf2_ChannelH_2_OFF(16), Conf2_ChannelH_2_ON(16), 
		 -> Conf2_ChannelH_1_OFF(16), Conf2_ChannelH_1_ON(16), Conf2_ChannelD_OFF(16), Conf2_ChannelD_ON(16), 
		 -> Conf2_ChannelB_OFF(16), Conf2_ChannelB_ON(16), Conf1_ChannelF(12), Conf1_ChannelE(12), 
		 -> Conf1_ChannelD(12), 
  Config          1    5[BANK0 ] unsigned char 
  size            1    6[BANK0 ] unsigned char 
  RepeatAmount    1    7[BANK0 ] unsigned char 
 Auto vars:     Size  Location     Type
  i               1   10[BANK0 ] unsigned char 
 Return value:  Size  Location     Type
                  1    wreg      unsigned char 
 Registers used:
		wreg, fsr2l, fsr2h, status,2, status,0, tblptrl, tblptrh, tblptru, prodl, prodh
 Tracked objects:
		On entry : 
		On exit  : 
		Unchanged: 
 Data sizes:     COMRAM   BANK0   BANK1   BANK2   BANK3   BANK4   BANK5   BANK6   BANK7   BANK8   BANK9  BANK10  BANK11  BANK12  BANK13  BANK14  BANK15
      Params:         0       5       0       0       0       0       0       0       0       0       0       0       0       0       0       0       0
      Locals:         0       1       0       0       0       0       0       0       0       0       0       0       0       0       0       0       0
      Temps:          0       2       0       0       0       0       0       0       0       0       0       0       0       0       0       0       0
      Totals:         0       8       0       0       0       0       0       0       0       0       0       0       0       0       0       0       0
Total ram usage:        8 bytes
 Hardware stack levels used:    1
 Hardware stack levels required when called:    6
 This function calls:
		Nothing
 This function is called by:
		_SendRF_wait
 This function uses a non-reentrant model


 *************** function _LEDTimerON *****************
 Defined at:
		line 149 in file "Timer.c"
 Parameters:    Size  Location     Type
		None
 Auto vars:     Size  Location     Type
		None
 Return value:  Size  Location     Type
		None               void
 Registers used:
		wreg, status,2, cstack
 Tracked objects:
		On entry : 
		On exit  : 
		Unchanged: 
 Data sizes:     COMRAM   BANK0   BANK1   BANK2   BANK3   BANK4   BANK5   BANK6   BANK7   BANK8   BANK9  BANK10  BANK11  BANK12  BANK13  BANK14  BANK15
      Params:         0       0       0       0       0       0       0       0       0       0       0       0       0       0       0       0       0
      Locals:         0       0       0       0       0       0       0       0       0       0       0       0       0       0       0       0       0
      Temps:          0       0       0       0       0       0       0       0       0       0       0       0       0       0       0       0       0
      Totals:         0       0       0       0       0       0       0       0       0       0       0       0       0       0       0       0       0
Total ram usage:        0 bytes
 Hardware stack levels used:    1
 Hardware stack levels required when called:    7
 This function calls:
		_ResetTimer1
 This function is called by:
		_main
		_UseIRCode
		_WaitForIRsignal
		_SendRF_wait
 This function uses a non-reentrant model


 *************** function _ResetTimer1 *****************
 Defined at:
		line 123 in file "Timer.c"
 Parameters:    Size  Location     Type
		None
 Auto vars:     Size  Location     Type
		None
 Return value:  Size  Location     Type
		None               void
 Registers used:
		wreg, status,2
 Tracked objects:
		On entry : 
		On exit  : 
		Unchanged: 
 Data sizes:     COMRAM   BANK0   BANK1   BANK2   BANK3   BANK4   BANK5   BANK6   BANK7   BANK8   BANK9  BANK10  BANK11  BANK12  BANK13  BANK14  BANK15
      Params:         0       0       0       0       0       0       0       0       0       0       0       0       0       0       0       0       0
      Locals:         0       0       0       0       0       0       0       0       0       0       0       0       0       0       0       0       0
      Temps:          0       0       0       0       0       0       0       0       0       0       0       0       0       0       0       0       0
      Totals:         0       0       0       0       0       0       0       0       0       0       0       0       0       0       0       0       0
Total ram usage:        0 bytes
 Hardware stack levels used:    1
 Hardware stack levels required when called:    6
 This function calls:
		Nothing
 This function is called by:
		_LEDTimerON
 This function uses a non-reentrant model


 *************** function _SendNEC_wait *****************
 Defined at:
		line 427 in file "IR.c"
 Parameters:    Size  Location     Type
  code            4   24[BANK0 ] unsigned long 
  RepeatAmount    1   28[BANK0 ] unsigned char 
 Auto vars:     Size  Location     Type
  toggle          1   29[BANK0 ] unsigned char 
 Return value:  Size  Location     Type
		None               void
 Registers used:
		wreg, status,2, status,0, cstack
 Tracked objects:
		On entry : 
		On exit  : 
		Unchanged: 
 Data sizes:     COMRAM   BANK0   BANK1   BANK2   BANK3   BANK4   BANK5   BANK6   BANK7   BANK8   BANK9  BANK10  BANK11  BANK12  BANK13  BANK14  BANK15
      Params:         0       5       0       0       0       0       0       0       0       0       0       0       0       0       0       0       0
      Locals:         0       1       0       0       0       0       0       0       0       0       0       0       0       0       0       0       0
      Temps:          0       0       0       0       0       0       0       0       0       0       0       0       0       0       0       0       0
      Totals:         0       6       0       0       0       0       0       0       0       0       0       0       0       0       0       0       0
Total ram usage:        6 bytes
 Hardware stack levels used:    1
 Hardware stack levels required when called:    8
 This function calls:
		_CheckReceivingIR
		_ReadIRpin
		_SendNEC_bytes
		_delayUS
 This function is called by:
		_UseBluetooth
 This function uses a non-reentrant model


 *************** function _SendNEC_bytes *****************
 Defined at:
		line 364 in file "IR.c"
 Parameters:    Size  Location     Type
  code            4   19[BANK0 ] unsigned long 
  RepeatAmount    1   23[BANK0 ] unsigned char 
 Auto vars:     Size  Location     Type
		None
 Return value:  Size  Location     Type
                  1    wreg      unsigned char 
 Registers used:
		wreg, status,2, status,0, cstack
 Tracked objects:
		On entry : 
		On exit  : 
		Unchanged: 
 Data sizes:     COMRAM   BANK0   BANK1   BANK2   BANK3   BANK4   BANK5   BANK6   BANK7   BANK8   BANK9  BANK10  BANK11  BANK12  BANK13  BANK14  BANK15
      Params:         0       5       0       0       0       0       0       0       0       0       0       0       0       0       0       0       0
      Locals:         0       0       0       0       0       0       0       0       0       0       0       0       0       0       0       0       0
      Temps:          0       0       0       0       0       0       0       0       0       0       0       0       0       0       0       0       0
      Totals:         0       5       0       0       0       0       0       0       0       0       0       0       0       0       0       0       0
Total ram usage:        5 bytes
 Hardware stack levels used:    1
 Hardware stack levels required when called:    7
 This function calls:
		_Reverse_4Byte
 This function is called by:
		_SendNEC_wait
 This function uses a non-reentrant model


 *************** function _Reverse_4Byte *****************
 Defined at:
		line 486 in file "MISC.c"
 Parameters:    Size  Location     Type
  This            4    3[BANK0 ] unsigned long 
 Auto vars:     Size  Location     Type
  temp            4   15[BANK0 ] unsigned long 
 Return value:  Size  Location     Type
                  4    3[BANK0 ] unsigned long 
 Registers used:
		wreg, status,2, status,0
 Tracked objects:
		On entry : 
		On exit  : 
		Unchanged: 
 Data sizes:     COMRAM   BANK0   BANK1   BANK2   BANK3   BANK4   BANK5   BANK6   BANK7   BANK8   BANK9  BANK10  BANK11  BANK12  BANK13  BANK14  BANK15
      Params:         0       4       0       0       0       0       0       0       0       0       0       0       0       0       0       0       0
      Locals:         0       4       0       0       0       0       0       0       0       0       0       0       0       0       0       0       0
      Temps:          0       8       0       0       0       0       0       0       0       0       0       0       0       0       0       0       0
      Totals:         0      16       0       0       0       0       0       0       0       0       0       0       0       0       0       0       0
Total ram usage:       16 bytes
 Hardware stack levels used:    1
 Hardware stack levels required when called:    6
 This function calls:
		Nothing
 This function is called by:
		_SendNEC_bytes
 This function uses a non-reentrant model


 *************** function _CheckReceivingIR *****************
 Defined at:
		line 516 in file "IR.c"
 Parameters:    Size  Location     Type
		None
 Auto vars:     Size  Location     Type
		None
 Return value:  Size  Location     Type
                  1    wreg      unsigned char 
 Registers used:
		wreg, status,2, status,0
 Tracked objects:
		On entry : 
		On exit  : 
		Unchanged: 
 Data sizes:     COMRAM   BANK0   BANK1   BANK2   BANK3   BANK4   BANK5   BANK6   BANK7   BANK8   BANK9  BANK10  BANK11  BANK12  BANK13  BANK14  BANK15
      Params:         0       0       0       0       0       0       0       0       0       0       0       0       0       0       0       0       0
      Locals:         0       0       0       0       0       0       0       0       0       0       0       0       0       0       0       0       0
      Temps:          0       0       0       0       0       0       0       0       0       0       0       0       0       0       0       0       0
      Totals:         0       0       0       0       0       0       0       0       0       0       0       0       0       0       0       0       0
Total ram usage:        0 bytes
 Hardware stack levels used:    1
 Hardware stack levels required when called:    6
 This function calls:
		Nothing
 This function is called by:
		_SendNEC_wait
 This function uses a non-reentrant model


 *************** function _ReadVoltage *****************
 Defined at:
		line 60 in file "ADC.c"
 Parameters:    Size  Location     Type
		None
 Auto vars:     Size  Location     Type
  voltage         3   47[BANK0 ] unsigned char 
  temp            2   50[BANK0 ] unsigned int 
 Return value:  Size  Location     Type
                  3   44[BANK0 ] unsigned int 
 Registers used:
		wreg, fsr2l, fsr2h, status,2, status,0, cstack
 Tracked objects:
		On entry : 
		On exit  : 
		Unchanged: 
 Data sizes:     COMRAM   BANK0   BANK1   BANK2   BANK3   BANK4   BANK5   BANK6   BANK7   BANK8   BANK9  BANK10  BANK11  BANK12  BANK13  BANK14  BANK15
      Params:         0       3       0       0       0       0       0       0       0       0       0       0       0       0       0       0       0
      Locals:         0       5       0       0       0       0       0       0       0       0       0       0       0       0       0       0       0
      Temps:          0       0       0       0       0       0       0       0       0       0       0       0       0       0       0       0       0
      Totals:         0       8       0       0       0       0       0       0       0       0       0       0       0       0       0       0       0
Total ram usage:        8 bytes
 Hardware stack levels used:    1
 Hardware stack levels required when called:    8
 This function calls:
		_InternalADC_Read
		_VoltageDividerOFF
		___ftdiv
		___ftmul
		___lwtoft
 This function is called by:
		_main
		_UseBluetooth
 This function uses a non-reentrant model


 *************** function ___lwtoft *****************
 Defined at:
		line 28 in file "C:\Program Files (x86)\Microchip\xc8\v1.34\sources\common\lwtoft.c"
 Parameters:    Size  Location     Type
  c               2   11[BANK0 ] unsigned int 
 Auto vars:     Size  Location     Type
		None
 Return value:  Size  Location     Type
                  3   11[BANK0 ] float 
 Registers used:
		wreg, status,2, status,0, cstack
 Tracked objects:
		On entry : 
		On exit  : 
		Unchanged: 
 Data sizes:     COMRAM   BANK0   BANK1   BANK2   BANK3   BANK4   BANK5   BANK6   BANK7   BANK8   BANK9  BANK10  BANK11  BANK12  BANK13  BANK14  BANK15
      Params:         0       3       0       0       0       0       0       0       0       0       0       0       0       0       0       0       0
      Locals:         0       0       0       0       0       0       0       0       0       0       0       0       0       0       0       0       0
      Temps:          0       0       0       0       0       0       0       0       0       0       0       0       0       0       0       0       0
      Totals:         0       3       0       0       0       0       0       0       0       0       0       0       0       0       0       0       0
Total ram usage:        3 bytes
 Hardware stack levels used:    1
 Hardware stack levels required when called:    7
 This function calls:
		___ftpack
 This function is called by:
		_ReadVoltage
 This function uses a non-reentrant model


 *************** function ___ftdiv *****************
 Defined at:
		line 54 in file "C:\Program Files (x86)\Microchip\xc8\v1.34\sources\common\ftdiv.c"
 Parameters:    Size  Location     Type
  f1              3   14[BANK0 ] float 
  f2              3   17[BANK0 ] float 
 Auto vars:     Size  Location     Type
  f3              3   24[BANK0 ] float 
  sign            1   28[BANK0 ] unsigned char 
  exp             1   27[BANK0 ] unsigned char 
  cntr            1   23[BANK0 ] unsigned char 
 Return value:  Size  Location     Type
                  3   14[BANK0 ] float 
 Registers used:
		wreg, status,2, status,0, cstack
 Tracked objects:
		On entry : 
		On exit  : 
		Unchanged: 
 Data sizes:     COMRAM   BANK0   BANK1   BANK2   BANK3   BANK4   BANK5   BANK6   BANK7   BANK8   BANK9  BANK10  BANK11  BANK12  BANK13  BANK14  BANK15
      Params:         0       6       0       0       0       0       0       0       0       0       0       0       0       0       0       0       0
      Locals:         0       6       0       0       0       0       0       0       0       0       0       0       0       0       0       0       0
      Temps:          0       3       0       0       0       0       0       0       0       0       0       0       0       0       0       0       0
      Totals:         0      15       0       0       0       0       0       0       0       0       0       0       0       0       0       0       0
Total ram usage:       15 bytes
 Hardware stack levels used:    1
 Hardware stack levels required when called:    7
 This function calls:
		___ftpack
 This function is called by:
		_ReadVoltage
 This function uses a non-reentrant model


 *************** function _VoltageDividerOFF *****************
 Defined at:
		line 163 in file "ADC.c"
 Parameters:    Size  Location     Type
		None
 Auto vars:     Size  Location     Type
		None
 Return value:  Size  Location     Type
		None               void
 Registers used:
		None
 Tracked objects:
		On entry : 
		On exit  : 
		Unchanged: 
 Data sizes:     COMRAM   BANK0   BANK1   BANK2   BANK3   BANK4   BANK5   BANK6   BANK7   BANK8   BANK9  BANK10  BANK11  BANK12  BANK13  BANK14  BANK15
      Params:         0       0       0       0       0       0       0       0       0       0       0       0       0       0       0       0       0
      Locals:         0       0       0       0       0       0       0       0       0       0       0       0       0       0       0       0       0
      Temps:          0       0       0       0       0       0       0       0       0       0       0       0       0       0       0       0       0
      Totals:         0       0       0       0       0       0       0       0       0       0       0       0       0       0       0       0       0
Total ram usage:        0 bytes
 Hardware stack levels used:    1
 Hardware stack levels required when called:    6
 This function calls:
		Nothing
 This function is called by:
		_ReadVoltage
 This function uses a non-reentrant model


 *************** function _InternalADC_Read *****************
 Defined at:
		line 86 in file "ADC.c"
 Parameters:    Size  Location     Type
  channel         1    wreg     unsigned char 
  ADCcounts       2   12[BANK0 ] PTR unsigned int 
		 -> ReadVoltage@temp(2), 
 Auto vars:     Size  Location     Type
  channel         1   17[BANK0 ] unsigned char 
  AnaChanSel      1   16[BANK0 ] unsigned char 
 Return value:  Size  Location     Type
                  1    wreg      unsigned char 
 Registers used:
		wreg, fsr2l, fsr2h, status,2, status,0, cstack
 Tracked objects:
		On entry : 
		On exit  : 
		Unchanged: 
 Data sizes:     COMRAM   BANK0   BANK1   BANK2   BANK3   BANK4   BANK5   BANK6   BANK7   BANK8   BANK9  BANK10  BANK11  BANK12  BANK13  BANK14  BANK15
      Params:         0       2       0       0       0       0       0       0       0       0       0       0       0       0       0       0       0
      Locals:         0       2       0       0       0       0       0       0       0       0       0       0       0       0       0       0       0
      Temps:          0       2       0       0       0       0       0       0       0       0       0       0       0       0       0       0       0
      Totals:         0       6       0       0       0       0       0       0       0       0       0       0       0       0       0       0       0
Total ram usage:        6 bytes
 Hardware stack levels used:    1
 Hardware stack levels required when called:    7
 This function calls:
		_delayUS
 This function is called by:
		_ReadVoltage
 This function uses a non-reentrant model


 *************** function _IsAlphaNumericString *****************
 Defined at:
		line 159 in file "MISC.c"
 Parameters:    Size  Location     Type
  data            2    5[BANK0 ] PTR unsigned char 
		 -> ReceivedString(100), 
 Auto vars:     Size  Location     Type
		None
 Return value:  Size  Location     Type
                  1    wreg      unsigned char 
 Registers used:
		wreg, fsr2l, fsr2h, status,2, status,0, cstack
 Tracked objects:
		On entry : 
		On exit  : 
		Unchanged: 
 Data sizes:     COMRAM   BANK0   BANK1   BANK2   BANK3   BANK4   BANK5   BANK6   BANK7   BANK8   BANK9  BANK10  BANK11  BANK12  BANK13  BANK14  BANK15
      Params:         0       2       0       0       0       0       0       0       0       0       0       0       0       0       0       0       0
      Locals:         0       0       0       0       0       0       0       0       0       0       0       0       0       0       0       0       0
      Temps:          0       0       0       0       0       0       0       0       0       0       0       0       0       0       0       0       0
      Totals:         0       2       0       0       0       0       0       0       0       0       0       0       0       0       0       0       0
Total ram usage:        2 bytes
 Hardware stack levels used:    1
 Hardware stack levels required when called:    8
 This function calls:
		_IsAlphaNumeric
 This function is called by:
		_UseBluetooth
 This function uses a non-reentrant model


 *************** function _IsAlphaNumeric *****************
 Defined at:
		line 144 in file "MISC.c"
 Parameters:    Size  Location     Type
  data            1    wreg     unsigned char 
 Auto vars:     Size  Location     Type
  data            1    4[BANK0 ] unsigned char 
 Return value:  Size  Location     Type
                  1    wreg      unsigned char 
 Registers used:
		wreg, status,2, status,0, cstack
 Tracked objects:
		On entry : 
		On exit  : 
		Unchanged: 
 Data sizes:     COMRAM   BANK0   BANK1   BANK2   BANK3   BANK4   BANK5   BANK6   BANK7   BANK8   BANK9  BANK10  BANK11  BANK12  BANK13  BANK14  BANK15
      Params:         0       0       0       0       0       0       0       0       0       0       0       0       0       0       0       0       0
      Locals:         0       1       0       0       0       0       0       0       0       0       0       0       0       0       0       0       0
      Temps:          0       0       0       0       0       0       0       0       0       0       0       0       0       0       0       0       0
      Totals:         0       1       0       0       0       0       0       0       0       0       0       0       0       0       0       0       0
Total ram usage:        1 bytes
 Hardware stack levels used:    1
 Hardware stack levels required when called:    7
 This function calls:
		_IsLetter
		_IsNumber
 This function is called by:
		_IsAlphaNumericString
 This function uses a non-reentrant model


 *************** function _IsNumber *****************
 Defined at:
		line 115 in file "MISC.c"
 Parameters:    Size  Location     Type
  data            1    wreg     unsigned char 
 Auto vars:     Size  Location     Type
  data            1    3[BANK0 ] unsigned char 
 Return value:  Size  Location     Type
                  1    wreg      unsigned char 
 Registers used:
		wreg, status,2, status,0
 Tracked objects:
		On entry : 
		On exit  : 
		Unchanged: 
 Data sizes:     COMRAM   BANK0   BANK1   BANK2   BANK3   BANK4   BANK5   BANK6   BANK7   BANK8   BANK9  BANK10  BANK11  BANK12  BANK13  BANK14  BANK15
      Params:         0       0       0       0       0       0       0       0       0       0       0       0       0       0       0       0       0
      Locals:         0       1       0       0       0       0       0       0       0       0       0       0       0       0       0       0       0
      Temps:          0       0       0       0       0       0       0       0       0       0       0       0       0       0       0       0       0
      Totals:         0       1       0       0       0       0       0       0       0       0       0       0       0       0       0       0       0
Total ram usage:        1 bytes
 Hardware stack levels used:    1
 Hardware stack levels required when called:    6
 This function calls:
		Nothing
 This function is called by:
		_IsAlphaNumeric
 This function uses a non-reentrant model


 *************** function _GetStringAfterComma *****************
 Defined at:
		line 847 in file "MISC.c"
 Parameters:    Size  Location     Type
  This            2    3[BANK0 ] PTR unsigned char 
		 -> main@BluetoothString(100), 
  CommaNumber     1    5[BANK0 ] unsigned char 
  result          2    6[BANK0 ] PTR unsigned char 
		 -> UseBluetooth@rfchannelSTR(10), 
 Auto vars:     Size  Location     Type
  count           1   10[BANK0 ] unsigned char 
  tempCommaNum    1    9[BANK0 ] unsigned char 
 Return value:  Size  Location     Type
                  1    wreg      unsigned char 
 Registers used:
		wreg, fsr1l, fsr1h, fsr2l, fsr2h, status,2, status,0
 Tracked objects:
		On entry : 
		On exit  : 
		Unchanged: 
 Data sizes:     COMRAM   BANK0   BANK1   BANK2   BANK3   BANK4   BANK5   BANK6   BANK7   BANK8   BANK9  BANK10  BANK11  BANK12  BANK13  BANK14  BANK15
      Params:         0       5       0       0       0       0       0       0       0       0       0       0       0       0       0       0       0
      Locals:         0       2       0       0       0       0       0       0       0       0       0       0       0       0       0       0       0
      Temps:          0       1       0       0       0       0       0       0       0       0       0       0       0       0       0       0       0
      Totals:         0       8       0       0       0       0       0       0       0       0       0       0       0       0       0       0       0
Total ram usage:        8 bytes
 Hardware stack levels used:    1
 Hardware stack levels required when called:    6
 This function calls:
		Nothing
 This function is called by:
		_UseBluetooth
 This function uses a non-reentrant model


 *************** function _GetNumberUnsigned *****************
 Defined at:
		line 665 in file "MISC.c"
 Parameters:    Size  Location     Type
  This            2   15[BANK0 ] PTR unsigned char 
		 -> main@BluetoothString(100), 
  CommaNumber     1   17[BANK0 ] unsigned char 
  result          2   18[BANK0 ] PTR unsigned long 
		 -> UseBluetooth@temp(4), UseBluetooth@EnteredNEC(4), 
 Auto vars:     Size  Location     Type
  temp            4   29[BANK0 ] long 
  tempThis        1   33[BANK0 ] unsigned char 
  i               1   28[BANK0 ] unsigned char 
  Hex             1   27[BANK0 ] unsigned char 
  count           1   26[BANK0 ] unsigned char 
  tempCommaNum    1   25[BANK0 ] unsigned char 
 Return value:  Size  Location     Type
                  1    wreg      unsigned char 
 Registers used:
		wreg, fsr2l, fsr2h, status,2, status,0, prodl, prodh, cstack
 Tracked objects:
		On entry : 
		On exit  : 
		Unchanged: 
 Data sizes:     COMRAM   BANK0   BANK1   BANK2   BANK3   BANK4   BANK5   BANK6   BANK7   BANK8   BANK9  BANK10  BANK11  BANK12  BANK13  BANK14  BANK15
      Params:         0       5       0       0       0       0       0       0       0       0       0       0       0       0       0       0       0
      Locals:         0       9       0       0       0       0       0       0       0       0       0       0       0       0       0       0       0
      Temps:          0       5       0       0       0       0       0       0       0       0       0       0       0       0       0       0       0
      Totals:         0      19       0       0       0       0       0       0       0       0       0       0       0       0       0       0       0
Total ram usage:       19 bytes
 Hardware stack levels used:    1
 Hardware stack levels required when called:    7
 This function calls:
		_IsLetter
		___lmul
		_lowercaseChar
 This function is called by:
		_UseBluetooth
 This function uses a non-reentrant model


 *************** function _GetNumber *****************
 Defined at:
		line 531 in file "MISC.c"
 Parameters:    Size  Location     Type
  This            2   15[BANK0 ] PTR unsigned char 
		 -> ReceivedString(100), 
  CommaNumber     1   17[BANK0 ] unsigned char 
  result          2   18[BANK0 ] PTR long 
		 -> UseBluetooth@SerialNumberTEMP(4), 
 Auto vars:     Size  Location     Type
  temp            4   31[BANK0 ] long 
  tempThis        1   30[BANK0 ] unsigned char 
  i               1   29[BANK0 ] unsigned char 
  Hex             1   28[BANK0 ] unsigned char 
  count           1   27[BANK0 ] unsigned char 
  negative        1   26[BANK0 ] unsigned char 
  tempCommaNum    1   25[BANK0 ] unsigned char 
 Return value:  Size  Location     Type
                  1    wreg      unsigned char 
 Registers used:
		wreg, fsr2l, fsr2h, status,2, status,0, prodl, prodh, cstack
 Tracked objects:
		On entry : 
		On exit  : 
		Unchanged: 
 Data sizes:     COMRAM   BANK0   BANK1   BANK2   BANK3   BANK4   BANK5   BANK6   BANK7   BANK8   BANK9  BANK10  BANK11  BANK12  BANK13  BANK14  BANK15
      Params:         0       5       0       0       0       0       0       0       0       0       0       0       0       0       0       0       0
      Locals:         0      10       0       0       0       0       0       0       0       0       0       0       0       0       0       0       0
      Temps:          0       5       0       0       0       0       0       0       0       0       0       0       0       0       0       0       0
      Totals:         0      20       0       0       0       0       0       0       0       0       0       0       0       0       0       0       0
Total ram usage:       20 bytes
 Hardware stack levels used:    1
 Hardware stack levels required when called:    7
 This function calls:
		_IsLetter
		___lmul
		_lowercaseChar
 This function is called by:
		_UseBluetooth
 This function uses a non-reentrant model


 *************** function ___lmul *****************
 Defined at:
		line 15 in file "C:\Program Files (x86)\Microchip\xc8\v1.34\sources\common\Umul32.c"
 Parameters:    Size  Location     Type
  multiplier      4    3[BANK0 ] unsigned long 
  multiplicand    4    7[BANK0 ] unsigned long 
 Auto vars:     Size  Location     Type
  product         4   11[BANK0 ] unsigned long 
 Return value:  Size  Location     Type
                  4    3[BANK0 ] unsigned long 
 Registers used:
		wreg, status,2, status,0
 Tracked objects:
		On entry : 
		On exit  : 
		Unchanged: 
 Data sizes:     COMRAM   BANK0   BANK1   BANK2   BANK3   BANK4   BANK5   BANK6   BANK7   BANK8   BANK9  BANK10  BANK11  BANK12  BANK13  BANK14  BANK15
      Params:         0       8       0       0       0       0       0       0       0       0       0       0       0       0       0       0       0
      Locals:         0       4       0       0       0       0       0       0       0       0       0       0       0       0       0       0       0
      Temps:          0       0       0       0       0       0       0       0       0       0       0       0       0       0       0       0       0
      Totals:         0      12       0       0       0       0       0       0       0       0       0       0       0       0       0       0       0
Total ram usage:       12 bytes
 Hardware stack levels used:    1
 Hardware stack levels required when called:    6
 This function calls:
		Nothing
 This function is called by:
		_GetNumber
		_GetNumberUnsigned
 This function uses a non-reentrant model


 *************** function _IsLetter *****************
 Defined at:
		line 101 in file "MISC.c"
 Parameters:    Size  Location     Type
  data            1    wreg     unsigned char 
 Auto vars:     Size  Location     Type
  data            1    3[BANK0 ] unsigned char 
 Return value:  Size  Location     Type
                  1    wreg      unsigned char 
 Registers used:
		wreg, status,2, status,0
 Tracked objects:
		On entry : 
		On exit  : 
		Unchanged: 
 Data sizes:     COMRAM   BANK0   BANK1   BANK2   BANK3   BANK4   BANK5   BANK6   BANK7   BANK8   BANK9  BANK10  BANK11  BANK12  BANK13  BANK14  BANK15
      Params:         0       0       0       0       0       0       0       0       0       0       0       0       0       0       0       0       0
      Locals:         0       1       0       0       0       0       0       0       0       0       0       0       0       0       0       0       0
      Temps:          0       0       0       0       0       0       0       0       0       0       0       0       0       0       0       0       0
      Totals:         0       1       0       0       0       0       0       0       0       0       0       0       0       0       0       0       0
Total ram usage:        1 bytes
 Hardware stack levels used:    1
 Hardware stack levels required when called:    6
 This function calls:
		Nothing
 This function is called by:
		_IsAlphaNumeric
		_GetNumber
		_GetNumberUnsigned
 This function uses a non-reentrant model


 *************** function _EncodeNEC *****************
 Defined at:
		line 530 in file "IR.c"
 Parameters:    Size  Location     Type
  address         1    wreg     unsigned char 
  command         1    7[BANK0 ] unsigned char 
 Auto vars:     Size  Location     Type
  address         1   47[BANK0 ] unsigned char 
  temp4           4   43[BANK0 ] unsigned long 
  temp3           4   39[BANK0 ] unsigned long 
  temp2           4   35[BANK0 ] unsigned long 
  temp1           4   31[BANK0 ] unsigned long 
 Return value:  Size  Location     Type
                  4    7[BANK0 ] unsigned long 
 Registers used:
		wreg, status,2, status,0, cstack
 Tracked objects:
		On entry : 
		On exit  : 
		Unchanged: 
 Data sizes:     COMRAM   BANK0   BANK1   BANK2   BANK3   BANK4   BANK5   BANK6   BANK7   BANK8   BANK9  BANK10  BANK11  BANK12  BANK13  BANK14  BANK15
      Params:         0       4       0       0       0       0       0       0       0       0       0       0       0       0       0       0       0
      Locals:         0      17       0       0       0       0       0       0       0       0       0       0       0       0       0       0       0
      Temps:          0      20       0       0       0       0       0       0       0       0       0       0       0       0       0       0       0
      Totals:         0      41       0       0       0       0       0       0       0       0       0       0       0       0       0       0       0
Total ram usage:       41 bytes
 Hardware stack levels used:    1
 Hardware stack levels required when called:    7
 This function calls:
		_Reverse_Byte
 This function is called by:
		_UseBluetooth
 This function uses a non-reentrant model


 *************** function _DisplayRF_Channel *****************
 Defined at:
		line 260 in file "RF.c"
 Parameters:    Size  Location     Type
  channel         1    wreg     unsigned char 
 Auto vars:     Size  Location     Type
  channel         1   16[BANK0 ] unsigned char 
 Return value:  Size  Location     Type
		None               void
 Registers used:
		wreg, status,2, status,0, tblptrl, tblptrh, tblptru, cstack
 Tracked objects:
		On entry : 
		On exit  : 
		Unchanged: 
 Data sizes:     COMRAM   BANK0   BANK1   BANK2   BANK3   BANK4   BANK5   BANK6   BANK7   BANK8   BANK9  BANK10  BANK11  BANK12  BANK13  BANK14  BANK15
      Params:         0       0       0       0       0       0       0       0       0       0       0       0       0       0       0       0       0
      Locals:         0       1       0       0       0       0       0       0       0       0       0       0       0       0       0       0       0
      Temps:          0       0       0       0       0       0       0       0       0       0       0       0       0       0       0       0       0
      Totals:         0       1       0       0       0       0       0       0       0       0       0       0       0       0       0       0       0
Total ram usage:        1 bytes
 Hardware stack levels used:    1
 Hardware stack levels required when called:    9
 This function calls:
		_UARTstring_CONST
 This function is called by:
		_UseBluetooth
 This function uses a non-reentrant model


 *************** function _DecodeNEC *****************
 Defined at:
		line 556 in file "IR.c"
 Parameters:    Size  Location     Type
  Nec             4    7[BANK0 ] unsigned long 
  address         2   11[BANK0 ] PTR unsigned char 
		 -> UseBluetooth@NecAddress(1), IRaddress(1), 
  command         2   13[BANK0 ] PTR unsigned char 
		 -> UseBluetooth@NecCommand(1), IRcommand(1), 
 Auto vars:     Size  Location     Type
  temp1           1   21[BANK0 ] unsigned char 
  temp3           1   20[BANK0 ] unsigned char 
  temp2           1   19[BANK0 ] unsigned char 
 Return value:  Size  Location     Type
                  1    wreg      unsigned char 
 Registers used:
		wreg, fsr2l, fsr2h, status,2, status,0, cstack
 Tracked objects:
		On entry : 
		On exit  : 
		Unchanged: 
 Data sizes:     COMRAM   BANK0   BANK1   BANK2   BANK3   BANK4   BANK5   BANK6   BANK7   BANK8   BANK9  BANK10  BANK11  BANK12  BANK13  BANK14  BANK15
      Params:         0       8       0       0       0       0       0       0       0       0       0       0       0       0       0       0       0
      Locals:         0       3       0       0       0       0       0       0       0       0       0       0       0       0       0       0       0
      Temps:          0       4       0       0       0       0       0       0       0       0       0       0       0       0       0       0       0
      Totals:         0      15       0       0       0       0       0       0       0       0       0       0       0       0       0       0       0
Total ram usage:       15 bytes
 Hardware stack levels used:    1
 Hardware stack levels required when called:    7
 This function calls:
		_Reverse_Byte
 This function is called by:
		_UseIRCode
		_UseBluetooth
 This function uses a non-reentrant model


 *************** function _Reverse_Byte *****************
 Defined at:
		line 436 in file "MISC.c"
 Parameters:    Size  Location     Type
  This            1    wreg     unsigned char 
 Auto vars:     Size  Location     Type
  This            1    6[BANK0 ] unsigned char 
  temp            1    5[BANK0 ] unsigned char 
 Return value:  Size  Location     Type
                  1    wreg      unsigned char 
 Registers used:
		wreg, status,2, status,0
 Tracked objects:
		On entry : 
		On exit  : 
		Unchanged: 
 Data sizes:     COMRAM   BANK0   BANK1   BANK2   BANK3   BANK4   BANK5   BANK6   BANK7   BANK8   BANK9  BANK10  BANK11  BANK12  BANK13  BANK14  BANK15
      Params:         0       0       0       0       0       0       0       0       0       0       0       0       0       0       0       0       0
      Locals:         0       2       0       0       0       0       0       0       0       0       0       0       0       0       0       0       0
      Temps:          0       2       0       0       0       0       0       0       0       0       0       0       0       0       0       0       0
      Totals:         0       4       0       0       0       0       0       0       0       0       0       0       0       0       0       0       0
Total ram usage:        4 bytes
 Hardware stack levels used:    1
 Hardware stack levels required when called:    6
 This function calls:
		Nothing
 This function is called by:
		_EncodeNEC
		_DecodeNEC
 This function uses a non-reentrant model


 *************** function _Init_System *****************
 Defined at:
		line 109 in file "user.c"
 Parameters:    Size  Location     Type
		None
 Auto vars:     Size  Location     Type
  buf            50  187[BANK1 ] unsigned char [50]
 Return value:  Size  Location     Type
		None               void
 Registers used:
		wreg, fsr0l, fsr0h, fsr1l, fsr1h, fsr2l, fsr2h, status,2, status,0, tblptrl, tblptrh, tblptru, prodl, prodh, cstack
 Tracked objects:
		On entry : 
		On exit  : 
		Unchanged: 
 Data sizes:     COMRAM   BANK0   BANK1   BANK2   BANK3   BANK4   BANK5   BANK6   BANK7   BANK8   BANK9  BANK10  BANK11  BANK12  BANK13  BANK14  BANK15
      Params:         0       0       0       0       0       0       0       0       0       0       0       0       0       0       0       0       0
      Locals:         0       0      50       0       0       0       0       0       0       0       0       0       0       0       0       0       0
      Temps:          0       0       0       0       0       0       0       0       0       0       0       0       0       0       0       0       0
      Totals:         0       0      50       0       0       0       0       0       0       0       0       0       0       0       0       0       0
Total ram usage:       50 bytes
 Hardware stack levels used:    1
 Hardware stack levels required when called:   13
 This function calls:
		_BufferCopy
		_EEPROMinitialized
		_InitADC
		_InitBluetooth
		_InitIR
		_InitTimers
		_InitUART
		_SetEEPROM2
		_SetEEPROMdefault
		_SyncEEPROMToGlobal
		_SyncGlobalToEEPROM
		_cleanBuffer
		_sprintf
 This function is called by:
		_main
 This function uses a non-reentrant model


 *************** function _SyncEEPROMToGlobal *****************
 Defined at:
		line 346 in file "EEPROM.c"
 Parameters:    Size  Location     Type
		None
 Auto vars:     Size  Location     Type
  Temp2          52   52[BANK0 ] struct EEdata2
  Temp1          30  105[BANK0 ] struct EEdata
  j               1  136[BANK0 ] unsigned char 
  i               1  135[BANK0 ] unsigned char 
  k               1  104[BANK0 ] unsigned char 
 Return value:  Size  Location     Type
		None               void
 Registers used:
		wreg, fsr1l, fsr1h, fsr2l, fsr2h, status,2, status,0, prodl, prodh, cstack
 Tracked objects:
		On entry : 
		On exit  : 
		Unchanged: 
 Data sizes:     COMRAM   BANK0   BANK1   BANK2   BANK3   BANK4   BANK5   BANK6   BANK7   BANK8   BANK9  BANK10  BANK11  BANK12  BANK13  BANK14  BANK15
      Params:         0       0       0       0       0       0       0       0       0       0       0       0       0       0       0       0       0
      Locals:         0      85       0       0       0       0       0       0       0       0       0       0       0       0       0       0       0
      Temps:          0       4       0       0       0       0       0       0       0       0       0       0       0       0       0       0       0
      Totals:         0      89       0       0       0       0       0       0       0       0       0       0       0       0       0       0       0
Total ram usage:       89 bytes
 Hardware stack levels used:    1
 Hardware stack levels required when called:    9
 This function calls:
		_GetEEPROM1
		_GetEEPROM2
 This function is called by:
		_Init_System
		_UseBluetooth
 This function uses a non-reentrant model


 *************** function _GetEEPROM2 *****************
 Defined at:
		line 156 in file "EEPROM.c"
 Parameters:    Size  Location     Type
  Temp            2   40[BANK0 ] PTR struct EEdata2
		 -> SyncEEPROMToGlobal@Temp2(52), 
 Auto vars:     Size  Location     Type
  k               1   47[BANK0 ] unsigned char 
  j               1   46[BANK0 ] unsigned char 
  i               1   45[BANK0 ] unsigned char 
  Arrayspot       1   44[BANK0 ] unsigned char 
 Return value:  Size  Location     Type
		None               void
 Registers used:
		wreg, fsr2l, fsr2h, status,2, status,0, prodl, prodh, cstack
 Tracked objects:
		On entry : 
		On exit  : 
		Unchanged: 
 Data sizes:     COMRAM   BANK0   BANK1   BANK2   BANK3   BANK4   BANK5   BANK6   BANK7   BANK8   BANK9  BANK10  BANK11  BANK12  BANK13  BANK14  BANK15
      Params:         0       2       0       0       0       0       0       0       0       0       0       0       0       0       0       0       0
      Locals:         0       4       0       0       0       0       0       0       0       0       0       0       0       0       0       0       0
      Temps:          0       2       0       0       0       0       0       0       0       0       0       0       0       0       0       0       0
      Totals:         0       8       0       0       0       0       0       0       0       0       0       0       0       0       0       0       0
Total ram usage:        8 bytes
 Hardware stack levels used:    1
 Hardware stack levels required when called:    8
 This function calls:
		_GetMemoryChar
		_GetMemoryLong
 This function is called by:
		_SyncEEPROMToGlobal
 This function uses a non-reentrant model


 *************** function _GetEEPROM1 *****************
 Defined at:
		line 134 in file "EEPROM.c"
 Parameters:    Size  Location     Type
  Temp            2   40[BANK0 ] PTR struct EEdata
		 -> SyncEEPROMToGlobal@Temp1(30), 
 Auto vars:     Size  Location     Type
  j               1   46[BANK0 ] unsigned char 
  i               1   45[BANK0 ] unsigned char 
  Arrayspot       1   44[BANK0 ] unsigned char 
  k               1    0        unsigned char 
 Return value:  Size  Location     Type
		None               void
 Registers used:
		wreg, fsr2l, fsr2h, status,2, status,0, prodl, prodh, cstack
 Tracked objects:
		On entry : 
		On exit  : 
		Unchanged: 
 Data sizes:     COMRAM   BANK0   BANK1   BANK2   BANK3   BANK4   BANK5   BANK6   BANK7   BANK8   BANK9  BANK10  BANK11  BANK12  BANK13  BANK14  BANK15
      Params:         0       2       0       0       0       0       0       0       0       0       0       0       0       0       0       0       0
      Locals:         0       3       0       0       0       0       0       0       0       0       0       0       0       0       0       0       0
      Temps:          0       2       0       0       0       0       0       0       0       0       0       0       0       0       0       0       0
      Totals:         0       7       0       0       0       0       0       0       0       0       0       0       0       0       0       0       0
Total ram usage:        7 bytes
 Hardware stack levels used:    1
 Hardware stack levels required when called:    8
 This function calls:
		_GetMemoryChar
		_GetMemoryLong
 This function is called by:
		_SyncEEPROMToGlobal
 This function uses a non-reentrant model


 *************** function _SetEEPROMdefault *****************
 Defined at:
		line 299 in file "EEPROM.c"
 Parameters:    Size  Location     Type
		None
 Auto vars:     Size  Location     Type
  j               1  129[BANK0 ] unsigned char 
  i               1  128[BANK0 ] unsigned char 
  k               1  127[BANK0 ] unsigned char 
 Return value:  Size  Location     Type
		None               void
 Registers used:
		wreg, fsr0l, fsr0h, fsr2l, fsr2h, status,2, status,0, prodl, prodh, cstack
 Tracked objects:
		On entry : 
		On exit  : 
		Unchanged: 
 Data sizes:     COMRAM   BANK0   BANK1   BANK2   BANK3   BANK4   BANK5   BANK6   BANK7   BANK8   BANK9  BANK10  BANK11  BANK12  BANK13  BANK14  BANK15
      Params:         0       0       0       0       0       0       0       0       0       0       0       0       0       0       0       0       0
      Locals:         0       3       0       0       0       0       0       0       0       0       0       0       0       0       0       0       0
      Temps:          0       2       0       0       0       0       0       0       0       0       0       0       0       0       0       0       0
      Totals:         0       5       0       0       0       0       0       0       0       0       0       0       0       0       0       0       0
Total ram usage:        5 bytes
 Hardware stack levels used:    1
 Hardware stack levels required when called:   11
 This function calls:
		_SyncGlobalToEEPROM
 This function is called by:
		_Init_System
 This function uses a non-reentrant model


 *************** function _InitUART *****************
 Defined at:
		line 86 in file "UART.c"
 Parameters:    Size  Location     Type
  Baud            4   88[BANK0 ] unsigned long 
 Auto vars:     Size  Location     Type
  temp            4  102[BANK0 ] unsigned long 
  spbrg           2   99[BANK0 ] unsigned int 
  config          1  101[BANK0 ] unsigned char 
 Return value:  Size  Location     Type
		None               void
 Registers used:
		wreg, status,2, status,0, cstack
 Tracked objects:
		On entry : 
		On exit  : 
		Unchanged: 
 Data sizes:     COMRAM   BANK0   BANK1   BANK2   BANK3   BANK4   BANK5   BANK6   BANK7   BANK8   BANK9  BANK10  BANK11  BANK12  BANK13  BANK14  BANK15
      Params:         0       4       0       0       0       0       0       0       0       0       0       0       0       0       0       0       0
      Locals:         0      10       0       0       0       0       0       0       0       0       0       0       0       0       0       0       0
      Temps:          0       4       0       0       0       0       0       0       0       0       0       0       0       0       0       0       0
      Totals:         0      18       0       0       0       0       0       0       0       0       0       0       0       0       0       0       0
Total ram usage:       18 bytes
 Hardware stack levels used:    1
 Hardware stack levels required when called:    9
 This function calls:
		_ClearUSART
		_Local_CloseUSART
		_OpenUSART
		_Round
		___fttol
		___lldiv
		___lltoft
 This function is called by:
		_Init_System
 This function uses a non-reentrant model


 *************** function _Round *****************
 Defined at:
		line 205 in file "MISC.c"
 Parameters:    Size  Location     Type
  input           3   81[BANK0 ] unsigned char 
 Auto vars:     Size  Location     Type
  temp            4   84[BANK0 ] long 
 Return value:  Size  Location     Type
                  3   81[BANK0 ] long 
 Registers used:
		wreg, status,2, status,0, cstack
 Tracked objects:
		On entry : 
		On exit  : 
		Unchanged: 
 Data sizes:     COMRAM   BANK0   BANK1   BANK2   BANK3   BANK4   BANK5   BANK6   BANK7   BANK8   BANK9  BANK10  BANK11  BANK12  BANK13  BANK14  BANK15
      Params:         0       3       0       0       0       0       0       0       0       0       0       0       0       0       0       0       0
      Locals:         0       4       0       0       0       0       0       0       0       0       0       0       0       0       0       0       0
      Temps:          0       0       0       0       0       0       0       0       0       0       0       0       0       0       0       0       0
      Totals:         0       7       0       0       0       0       0       0       0       0       0       0       0       0       0       0       0
Total ram usage:        7 bytes
 Hardware stack levels used:    1
 Hardware stack levels required when called:    8
 This function calls:
		___altoft
		___ftadd
		___fttol
 This function is called by:
		_InitUART
 This function uses a non-reentrant model


 *************** function ___altoft *****************
 Defined at:
		line 42 in file "C:\Program Files (x86)\Microchip\xc8\v1.34\sources\common\altoft.c"
 Parameters:    Size  Location     Type
  c               4   11[BANK0 ] long 
 Auto vars:     Size  Location     Type
  sign            1   20[BANK0 ] unsigned char 
  exp             1   19[BANK0 ] unsigned char 
 Return value:  Size  Location     Type
                  3   11[BANK0 ] float 
 Registers used:
		wreg, status,2, status,0, cstack
 Tracked objects:
		On entry : 
		On exit  : 
		Unchanged: 
 Data sizes:     COMRAM   BANK0   BANK1   BANK2   BANK3   BANK4   BANK5   BANK6   BANK7   BANK8   BANK9  BANK10  BANK11  BANK12  BANK13  BANK14  BANK15
      Params:         0       4       0       0       0       0       0       0       0       0       0       0       0       0       0       0       0
      Locals:         0       2       0       0       0       0       0       0       0       0       0       0       0       0       0       0       0
      Temps:          0       4       0       0       0       0       0       0       0       0       0       0       0       0       0       0       0
      Totals:         0      10       0       0       0       0       0       0       0       0       0       0       0       0       0       0       0
Total ram usage:       10 bytes
 Hardware stack levels used:    1
 Hardware stack levels required when called:    7
 This function calls:
		___ftpack
 This function is called by:
		_Round
 This function uses a non-reentrant model


 *************** function _OpenUSART *****************
 Defined at:
		line 121 in file "UART.c"
 Parameters:    Size  Location     Type
  config          1    wreg     unsigned char 
  spbrg           2    3[BANK0 ] unsigned int 
 Auto vars:     Size  Location     Type
  config          1    5[BANK0 ] unsigned char 
 Return value:  Size  Location     Type
		None               void
 Registers used:
		wreg, status,2
 Tracked objects:
		On entry : 
		On exit  : 
		Unchanged: 
 Data sizes:     COMRAM   BANK0   BANK1   BANK2   BANK3   BANK4   BANK5   BANK6   BANK7   BANK8   BANK9  BANK10  BANK11  BANK12  BANK13  BANK14  BANK15
      Params:         0       2       0       0       0       0       0       0       0       0       0       0       0       0       0       0       0
      Locals:         0       1       0       0       0       0       0       0       0       0       0       0       0       0       0       0       0
      Temps:          0       0       0       0       0       0       0       0       0       0       0       0       0       0       0       0       0
      Totals:         0       3       0       0       0       0       0       0       0       0       0       0       0       0       0       0       0
Total ram usage:        3 bytes
 Hardware stack levels used:    1
 Hardware stack levels required when called:    6
 This function calls:
		Nothing
 This function is called by:
		_InitUART
 This function uses a non-reentrant model


 *************** function _Local_CloseUSART *****************
 Defined at:
		line 70 in file "UART.c"
 Parameters:    Size  Location     Type
		None
 Auto vars:     Size  Location     Type
		None
 Return value:  Size  Location     Type
		None               void
 Registers used:
		None
 Tracked objects:
		On entry : 
		On exit  : 
		Unchanged: 
 Data sizes:     COMRAM   BANK0   BANK1   BANK2   BANK3   BANK4   BANK5   BANK6   BANK7   BANK8   BANK9  BANK10  BANK11  BANK12  BANK13  BANK14  BANK15
      Params:         0       0       0       0       0       0       0       0       0       0       0       0       0       0       0       0       0
      Locals:         0       0       0       0       0       0       0       0       0       0       0       0       0       0       0       0       0
      Temps:          0       0       0       0       0       0       0       0       0       0       0       0       0       0       0       0       0
      Totals:         0       0       0       0       0       0       0       0       0       0       0       0       0       0       0       0       0
Total ram usage:        0 bytes
 Hardware stack levels used:    1
 Hardware stack levels required when called:    6
 This function calls:
		Nothing
 This function is called by:
		_InitUART
 This function uses a non-reentrant model


 *************** function _InitTimers *****************
 Defined at:
		line 51 in file "Timer.c"
 Parameters:    Size  Location     Type
		None
 Auto vars:     Size  Location     Type
		None
 Return value:  Size  Location     Type
		None               void
 Registers used:
		wreg, status,2, cstack
 Tracked objects:
		On entry : 
		On exit  : 
		Unchanged: 
 Data sizes:     COMRAM   BANK0   BANK1   BANK2   BANK3   BANK4   BANK5   BANK6   BANK7   BANK8   BANK9  BANK10  BANK11  BANK12  BANK13  BANK14  BANK15
      Params:         0       0       0       0       0       0       0       0       0       0       0       0       0       0       0       0       0
      Locals:         0       0       0       0       0       0       0       0       0       0       0       0       0       0       0       0       0
      Temps:          0       0       0       0       0       0       0       0       0       0       0       0       0       0       0       0       0
      Totals:         0       0       0       0       0       0       0       0       0       0       0       0       0       0       0       0       0
Total ram usage:        0 bytes
 Hardware stack levels used:    1
 Hardware stack levels required when called:    7
 This function calls:
		_InitTimer1
		_InitTimer2
		_InitTimer3
 This function is called by:
		_Init_System
 This function uses a non-reentrant model


 *************** function _InitTimer3 *****************
 Defined at:
		line 163 in file "Timer.c"
 Parameters:    Size  Location     Type
		None
 Auto vars:     Size  Location     Type
		None
 Return value:  Size  Location     Type
		None               void
 Registers used:
		wreg, status,2
 Tracked objects:
		On entry : 
		On exit  : 
		Unchanged: 
 Data sizes:     COMRAM   BANK0   BANK1   BANK2   BANK3   BANK4   BANK5   BANK6   BANK7   BANK8   BANK9  BANK10  BANK11  BANK12  BANK13  BANK14  BANK15
      Params:         0       0       0       0       0       0       0       0       0       0       0       0       0       0       0       0       0
      Locals:         0       0       0       0       0       0       0       0       0       0       0       0       0       0       0       0       0
      Temps:          0       0       0       0       0       0       0       0       0       0       0       0       0       0       0       0       0
      Totals:         0       0       0       0       0       0       0       0       0       0       0       0       0       0       0       0       0
Total ram usage:        0 bytes
 Hardware stack levels used:    1
 Hardware stack levels required when called:    6
 This function calls:
		Nothing
 This function is called by:
		_InitTimers
 This function uses a non-reentrant model


 *************** function _InitTimer2 *****************
 Defined at:
		line 138 in file "Timer.c"
 Parameters:    Size  Location     Type
		None
 Auto vars:     Size  Location     Type
		None
 Return value:  Size  Location     Type
		None               void
 Registers used:
		wreg, status,2
 Tracked objects:
		On entry : 
		On exit  : 
		Unchanged: 
 Data sizes:     COMRAM   BANK0   BANK1   BANK2   BANK3   BANK4   BANK5   BANK6   BANK7   BANK8   BANK9  BANK10  BANK11  BANK12  BANK13  BANK14  BANK15
      Params:         0       0       0       0       0       0       0       0       0       0       0       0       0       0       0       0       0
      Locals:         0       0       0       0       0       0       0       0       0       0       0       0       0       0       0       0       0
      Temps:          0       0       0       0       0       0       0       0       0       0       0       0       0       0       0       0       0
      Totals:         0       0       0       0       0       0       0       0       0       0       0       0       0       0       0       0       0
Total ram usage:        0 bytes
 Hardware stack levels used:    1
 Hardware stack levels required when called:    6
 This function calls:
		Nothing
 This function is called by:
		_InitTimers
 This function uses a non-reentrant model


 *************** function _InitTimer1 *****************
 Defined at:
		line 109 in file "Timer.c"
 Parameters:    Size  Location     Type
		None
 Auto vars:     Size  Location     Type
		None
 Return value:  Size  Location     Type
		None               void
 Registers used:
		wreg, status,2
 Tracked objects:
		On entry : 
		On exit  : 
		Unchanged: 
 Data sizes:     COMRAM   BANK0   BANK1   BANK2   BANK3   BANK4   BANK5   BANK6   BANK7   BANK8   BANK9  BANK10  BANK11  BANK12  BANK13  BANK14  BANK15
      Params:         0       0       0       0       0       0       0       0       0       0       0       0       0       0       0       0       0
      Locals:         0       0       0       0       0       0       0       0       0       0       0       0       0       0       0       0       0
      Temps:          0       0       0       0       0       0       0       0       0       0       0       0       0       0       0       0       0
      Totals:         0       0       0       0       0       0       0       0       0       0       0       0       0       0       0       0       0
Total ram usage:        0 bytes
 Hardware stack levels used:    1
 Hardware stack levels required when called:    6
 This function calls:
		Nothing
 This function is called by:
		_InitTimers
 This function uses a non-reentrant model


 *************** function _InitIR *****************
 Defined at:
		line 82 in file "IR.c"
 Parameters:    Size  Location     Type
		None
 Auto vars:     Size  Location     Type
		None
 Return value:  Size  Location     Type
		None               void
 Registers used:
		wreg, fsr2l, fsr2h, status,2, status,0, prodl, prodh, cstack
 Tracked objects:
		On entry : 
		On exit  : 
		Unchanged: 
 Data sizes:     COMRAM   BANK0   BANK1   BANK2   BANK3   BANK4   BANK5   BANK6   BANK7   BANK8   BANK9  BANK10  BANK11  BANK12  BANK13  BANK14  BANK15
      Params:         0       0       0       0       0       0       0       0       0       0       0       0       0       0       0       0       0
      Locals:         0       0       0       0       0       0       0       0       0       0       0       0       0       0       0       0       0
      Temps:          0       0       0       0       0       0       0       0       0       0       0       0       0       0       0       0       0
      Totals:         0       0       0       0       0       0       0       0       0       0       0       0       0       0       0       0       0
Total ram usage:        0 bytes
 Hardware stack levels used:    1
 Hardware stack levels required when called:    7
 This function calls:
		_InitTimer0
		_ReadIRpin
		_ResetTimer0
		_cleanBuffer16bit
 This function is called by:
		_Init_System
 This function uses a non-reentrant model


 *************** function _cleanBuffer16bit *****************
 Defined at:
		line 191 in file "MISC.c"
 Parameters:    Size  Location     Type
  data            2    3[BANK0 ] PTR unsigned int 
		 -> IRRawCode(200), 
  count           2    5[BANK0 ] int 
 Auto vars:     Size  Location     Type
  i               1   10[BANK0 ] unsigned char 
 Return value:  Size  Location     Type
		None               void
 Registers used:
		wreg, fsr2l, fsr2h, status,2, status,0, prodl, prodh
 Tracked objects:
		On entry : 
		On exit  : 
		Unchanged: 
 Data sizes:     COMRAM   BANK0   BANK1   BANK2   BANK3   BANK4   BANK5   BANK6   BANK7   BANK8   BANK9  BANK10  BANK11  BANK12  BANK13  BANK14  BANK15
      Params:         0       4       0       0       0       0       0       0       0       0       0       0       0       0       0       0       0
      Locals:         0       1       0       0       0       0       0       0       0       0       0       0       0       0       0       0       0
      Temps:          0       3       0       0       0       0       0       0       0       0       0       0       0       0       0       0       0
      Totals:         0       8       0       0       0       0       0       0       0       0       0       0       0       0       0       0       0
Total ram usage:        8 bytes
 Hardware stack levels used:    1
 Hardware stack levels required when called:    6
 This function calls:
		Nothing
 This function is called by:
		_InitIR
 This function uses a non-reentrant model


 *************** function _ResetTimer0 *****************
 Defined at:
		line 79 in file "Timer.c"
 Parameters:    Size  Location     Type
		None
 Auto vars:     Size  Location     Type
		None
 Return value:  Size  Location     Type
		None               void
 Registers used:
		wreg, status,2
 Tracked objects:
		On entry : 
		On exit  : 
		Unchanged: 
 Data sizes:     COMRAM   BANK0   BANK1   BANK2   BANK3   BANK4   BANK5   BANK6   BANK7   BANK8   BANK9  BANK10  BANK11  BANK12  BANK13  BANK14  BANK15
      Params:         0       0       0       0       0       0       0       0       0       0       0       0       0       0       0       0       0
      Locals:         0       0       0       0       0       0       0       0       0       0       0       0       0       0       0       0       0
      Temps:          0       0       0       0       0       0       0       0       0       0       0       0       0       0       0       0       0
      Totals:         0       0       0       0       0       0       0       0       0       0       0       0       0       0       0       0       0
Total ram usage:        0 bytes
 Hardware stack levels used:    1
 Hardware stack levels required when called:    6
 This function calls:
		Nothing
 This function is called by:
		_InitIR
 This function uses a non-reentrant model


 *************** function _ReadIRpin *****************
 Defined at:
		line 109 in file "IR.c"
 Parameters:    Size  Location     Type
		None
 Auto vars:     Size  Location     Type
		None
 Return value:  Size  Location     Type
                  1    wreg      unsigned char 
 Registers used:
		wreg
 Tracked objects:
		On entry : 
		On exit  : 
		Unchanged: 
 Data sizes:     COMRAM   BANK0   BANK1   BANK2   BANK3   BANK4   BANK5   BANK6   BANK7   BANK8   BANK9  BANK10  BANK11  BANK12  BANK13  BANK14  BANK15
      Params:         0       0       0       0       0       0       0       0       0       0       0       0       0       0       0       0       0
      Locals:         0       0       0       0       0       0       0       0       0       0       0       0       0       0       0       0       0
      Temps:          0       0       0       0       0       0       0       0       0       0       0       0       0       0       0       0       0
      Totals:         0       0       0       0       0       0       0       0       0       0       0       0       0       0       0       0       0
Total ram usage:        0 bytes
 Hardware stack levels used:    1
 Hardware stack levels required when called:    6
 This function calls:
		Nothing
 This function is called by:
		_main
		_InitIR
		_UseIRCode
		_SendNEC_wait
		_SendRF_wait
 This function uses a non-reentrant model


 *************** function _InitTimer0 *****************
 Defined at:
		line 66 in file "Timer.c"
 Parameters:    Size  Location     Type
		None
 Auto vars:     Size  Location     Type
		None
 Return value:  Size  Location     Type
		None               void
 Registers used:
		wreg, status,2
 Tracked objects:
		On entry : 
		On exit  : 
		Unchanged: 
 Data sizes:     COMRAM   BANK0   BANK1   BANK2   BANK3   BANK4   BANK5   BANK6   BANK7   BANK8   BANK9  BANK10  BANK11  BANK12  BANK13  BANK14  BANK15
      Params:         0       0       0       0       0       0       0       0       0       0       0       0       0       0       0       0       0
      Locals:         0       0       0       0       0       0       0       0       0       0       0       0       0       0       0       0       0
      Temps:          0       0       0       0       0       0       0       0       0       0       0       0       0       0       0       0       0
      Totals:         0       0       0       0       0       0       0       0       0       0       0       0       0       0       0       0       0
Total ram usage:        0 bytes
 Hardware stack levels used:    1
 Hardware stack levels required when called:    6
 This function calls:
		Nothing
 This function is called by:
		_InitIR
 This function uses a non-reentrant model


 *************** function _InitBluetooth *****************
 Defined at:
		line 78 in file "Bluetooth.c"
 Parameters:    Size  Location     Type
		None
 Auto vars:     Size  Location     Type
		None
 Return value:  Size  Location     Type
		None               void
 Registers used:
		wreg, fsr0l, fsr0h, fsr1l, fsr1h, fsr2l, fsr2h, status,2, status,0, tblptrl, tblptrh, tblptru, prodl, prodh, cstack
 Tracked objects:
		On entry : 
		On exit  : 
		Unchanged: 
 Data sizes:     COMRAM   BANK0   BANK1   BANK2   BANK3   BANK4   BANK5   BANK6   BANK7   BANK8   BANK9  BANK10  BANK11  BANK12  BANK13  BANK14  BANK15
      Params:         0       0       0       0       0       0       0       0       0       0       0       0       0       0       0       0       0
      Locals:         0       0       0       0       0       0       0       0       0       0       0       0       0       0       0       0       0
      Temps:          0       0       0       0       0       0       0       0       0       0       0       0       0       0       0       0       0
      Totals:         0       0       0       0       0       0       0       0       0       0       0       0       0       0       0       0       0
Total ram usage:        0 bytes
 Hardware stack levels used:    1
 Hardware stack levels required when called:   12
 This function calls:
		_BluetoothConfigured
		_BluetoothInitialSetup
		_ClearUSART
		_ResetBlue
		_SyncGlobalToEEPROM
		_cleanBuffer
 This function is called by:
		_Init_System
 This function uses a non-reentrant model


 *************** function _SyncGlobalToEEPROM *****************
 Defined at:
		line 273 in file "EEPROM.c"
 Parameters:    Size  Location     Type
		None
 Auto vars:     Size  Location     Type
  ok              1  124[BANK0 ] unsigned char 
 Return value:  Size  Location     Type
                  1    wreg      unsigned char 
 Registers used:
		wreg, fsr0l, fsr0h, fsr2l, fsr2h, status,2, status,0, prodl, prodh, cstack
 Tracked objects:
		On entry : 
		On exit  : 
		Unchanged: 
 Data sizes:     COMRAM   BANK0   BANK1   BANK2   BANK3   BANK4   BANK5   BANK6   BANK7   BANK8   BANK9  BANK10  BANK11  BANK12  BANK13  BANK14  BANK15
      Params:         0       0       0       0       0       0       0       0       0       0       0       0       0       0       0       0       0
      Locals:         0       1       0       0       0       0       0       0       0       0       0       0       0       0       0       0       0
      Temps:          0       0       0       0       0       0       0       0       0       0       0       0       0       0       0       0       0
      Totals:         0       1       0       0       0       0       0       0       0       0       0       0       0       0       0       0       0
Total ram usage:        1 bytes
 Hardware stack levels used:    1
 Hardware stack levels required when called:   10
 This function calls:
		_SetEEPROM1
		_SetEEPROM2
 This function is called by:
		_Init_System
		_SetEEPROMdefault
		_UseIRCode
		_InitBluetooth
		_UseBluetooth
 This function uses a non-reentrant model


 *************** function _SetEEPROM2 *****************
 Defined at:
		line 232 in file "EEPROM.c"
 Parameters:    Size  Location     Type
  Temp           52   57[BANK0 ] struct EEdata2
  burn            4  109[BANK0 ] unsigned long 
 Auto vars:     Size  Location     Type
  fail            4  116[BANK0 ] unsigned long 
  k               1  123[BANK0 ] unsigned char 
  j               1  122[BANK0 ] unsigned char 
  i               1  121[BANK0 ] unsigned char 
  Arrayspot       1  120[BANK0 ] unsigned char 
  temp            1  115[BANK0 ] unsigned char 
 Return value:  Size  Location     Type
                  4   57[BANK0 ] unsigned long 
 Registers used:
		wreg, fsr2l, fsr2h, status,2, status,0, prodl, prodh, cstack
 Tracked objects:
		On entry : 
		On exit  : 
		Unchanged: 
 Data sizes:     COMRAM   BANK0   BANK1   BANK2   BANK3   BANK4   BANK5   BANK6   BANK7   BANK8   BANK9  BANK10  BANK11  BANK12  BANK13  BANK14  BANK15
      Params:         0      56       0       0       0       0       0       0       0       0       0       0       0       0       0       0       0
      Locals:         0       9       0       0       0       0       0       0       0       0       0       0       0       0       0       0       0
      Temps:          0       2       0       0       0       0       0       0       0       0       0       0       0       0       0       0       0
      Totals:         0      67       0       0       0       0       0       0       0       0       0       0       0       0       0       0       0
Total ram usage:       67 bytes
 Hardware stack levels used:    1
 Hardware stack levels required when called:    9
 This function calls:
		_SetMemoryChar
		_SetMemoryLong
 This function is called by:
		_Init_System
		_SyncGlobalToEEPROM
		_UseBluetooth
 This function uses a non-reentrant model


 *************** function _SetEEPROM1 *****************
 Defined at:
		line 179 in file "EEPROM.c"
 Parameters:    Size  Location     Type
  Temp           30   57[BANK0 ] struct EEdata
  burn            4   87[BANK0 ] unsigned long 
 Auto vars:     Size  Location     Type
  fail            4   95[BANK0 ] unsigned long 
  j               1  100[BANK0 ] unsigned char 
  i               1   99[BANK0 ] unsigned char 
  Arrayspot       1   94[BANK0 ] unsigned char 
  temp            1   93[BANK0 ] unsigned char 
  k               1    0        unsigned char 
 Return value:  Size  Location     Type
                  4   57[BANK0 ] unsigned long 
 Registers used:
		wreg, fsr2l, fsr2h, status,2, status,0, prodl, prodh, cstack
 Tracked objects:
		On entry : 
		On exit  : 
		Unchanged: 
 Data sizes:     COMRAM   BANK0   BANK1   BANK2   BANK3   BANK4   BANK5   BANK6   BANK7   BANK8   BANK9  BANK10  BANK11  BANK12  BANK13  BANK14  BANK15
      Params:         0      34       0       0       0       0       0       0       0       0       0       0       0       0       0       0       0
      Locals:         0       8       0       0       0       0       0       0       0       0       0       0       0       0       0       0       0
      Temps:          0       2       0       0       0       0       0       0       0       0       0       0       0       0       0       0       0
      Totals:         0      44       0       0       0       0       0       0       0       0       0       0       0       0       0       0       0
Total ram usage:       44 bytes
 Hardware stack levels used:    1
 Hardware stack levels required when called:    9
 This function calls:
		_SetMemoryChar
		_SetMemoryLong
 This function is called by:
		_SyncGlobalToEEPROM
 This function uses a non-reentrant model


 *************** function _SetMemoryLong *****************
 Defined at:
		line 407 in file "EEPROM.c"
 Parameters:    Size  Location     Type
  Data            4   40[BANK0 ] unsigned long 
  AddressFirst    1   44[BANK0 ] unsigned char 
 Auto vars:     Size  Location     Type
  Test            4   49[BANK0 ] unsigned long 
  L               1   56[BANK0 ] unsigned char 
  ML              1   55[BANK0 ] unsigned char 
  MH              1   54[BANK0 ] unsigned char 
  H               1   53[BANK0 ] unsigned char 
 Return value:  Size  Location     Type
                  1    wreg      unsigned char 
 Registers used:
		wreg, status,2, status,0, cstack
 Tracked objects:
		On entry : 
		On exit  : 
		Unchanged: 
 Data sizes:     COMRAM   BANK0   BANK1   BANK2   BANK3   BANK4   BANK5   BANK6   BANK7   BANK8   BANK9  BANK10  BANK11  BANK12  BANK13  BANK14  BANK15
      Params:         0       5       0       0       0       0       0       0       0       0       0       0       0       0       0       0       0
      Locals:         0       8       0       0       0       0       0       0       0       0       0       0       0       0       0       0       0
      Temps:          0       4       0       0       0       0       0       0       0       0       0       0       0       0       0       0       0
      Totals:         0      17       0       0       0       0       0       0       0       0       0       0       0       0       0       0       0
Total ram usage:       17 bytes
 Hardware stack levels used:    1
 Hardware stack levels required when called:    8
 This function calls:
		_GetMemoryLong
		_WriteEEPROM_1Byte
 This function is called by:
		_SetEEPROM1
		_SetEEPROM2
 This function uses a non-reentrant model


 *************** function _GetMemoryLong *****************
 Defined at:
		line 384 in file "EEPROM.c"
 Parameters:    Size  Location     Type
  AddressFirst    1    wreg     unsigned char 
 Auto vars:     Size  Location     Type
  AddressFirst    1   39[BANK0 ] unsigned char 
  temp            4   31[BANK0 ] unsigned long 
  L               1   38[BANK0 ] unsigned char 
  ML              1   37[BANK0 ] unsigned char 
  MH              1   36[BANK0 ] unsigned char 
  H               1   35[BANK0 ] unsigned char 
 Return value:  Size  Location     Type
                  4    7[BANK0 ] unsigned long 
 Registers used:
		wreg, status,2, status,0, cstack
 Tracked objects:
		On entry : 
		On exit  : 
		Unchanged: 
 Data sizes:     COMRAM   BANK0   BANK1   BANK2   BANK3   BANK4   BANK5   BANK6   BANK7   BANK8   BANK9  BANK10  BANK11  BANK12  BANK13  BANK14  BANK15
      Params:         0       4       0       0       0       0       0       0       0       0       0       0       0       0       0       0       0
      Locals:         0       9       0       0       0       0       0       0       0       0       0       0       0       0       0       0       0
      Temps:          0      20       0       0       0       0       0       0       0       0       0       0       0       0       0       0       0
      Totals:         0      33       0       0       0       0       0       0       0       0       0       0       0       0       0       0       0
Total ram usage:       33 bytes
 Hardware stack levels used:    1
 Hardware stack levels required when called:    7
 This function calls:
		_ReadEEPROM_1Byte
 This function is called by:
		_GetEEPROM1
		_GetEEPROM2
		_SetMemoryLong
 This function uses a non-reentrant model


 *************** function _SetMemoryChar *****************
 Defined at:
		line 501 in file "EEPROM.c"
 Parameters:    Size  Location     Type
  Data            1    wreg     unsigned char 
  AddressFirst    1   13[BANK0 ] unsigned char 
 Auto vars:     Size  Location     Type
  Data            1   15[BANK0 ] unsigned char 
  Test            1   14[BANK0 ] unsigned char 
 Return value:  Size  Location     Type
                  1    wreg      unsigned char 
 Registers used:
		wreg, status,2, status,0, cstack
 Tracked objects:
		On entry : 
		On exit  : 
		Unchanged: 
 Data sizes:     COMRAM   BANK0   BANK1   BANK2   BANK3   BANK4   BANK5   BANK6   BANK7   BANK8   BANK9  BANK10  BANK11  BANK12  BANK13  BANK14  BANK15
      Params:         0       1       0       0       0       0       0       0       0       0       0       0       0       0       0       0       0
      Locals:         0       2       0       0       0       0       0       0       0       0       0       0       0       0       0       0       0
      Temps:          0       0       0       0       0       0       0       0       0       0       0       0       0       0       0       0       0
      Totals:         0       3       0       0       0       0       0       0       0       0       0       0       0       0       0       0       0
Total ram usage:        3 bytes
 Hardware stack levels used:    1
 Hardware stack levels required when called:    8
 This function calls:
		_GetMemoryChar
		_WriteEEPROM_1Byte
 This function is called by:
		_SetEEPROM1
		_SetEEPROM2
 This function uses a non-reentrant model


 *************** function _WriteEEPROM_1Byte *****************
 Defined at:
		line 102 in file "EEPROM.c"
 Parameters:    Size  Location     Type
  address         2    3[BANK0 ] unsigned int 
  data            1    5[BANK0 ] unsigned char 
 Auto vars:     Size  Location     Type
  PEIEstatus      1    7[BANK0 ] unsigned char 
  GIEstatus       1    6[BANK0 ] unsigned char 
 Return value:  Size  Location     Type
		None               void
 Registers used:
		wreg, status,2, status,0, cstack
 Tracked objects:
		On entry : 
		On exit  : 
		Unchanged: 
 Data sizes:     COMRAM   BANK0   BANK1   BANK2   BANK3   BANK4   BANK5   BANK6   BANK7   BANK8   BANK9  BANK10  BANK11  BANK12  BANK13  BANK14  BANK15
      Params:         0       3       0       0       0       0       0       0       0       0       0       0       0       0       0       0       0
      Locals:         0       2       0       0       0       0       0       0       0       0       0       0       0       0       0       0       0
      Temps:          0       0       0       0       0       0       0       0       0       0       0       0       0       0       0       0       0
      Totals:         0       5       0       0       0       0       0       0       0       0       0       0       0       0       0       0       0
Total ram usage:        5 bytes
 Hardware stack levels used:    1
 Hardware stack levels required when called:    7
 This function calls:
		_EEPROM_UNLOCK
 This function is called by:
		_SetMemoryLong
		_SetMemoryChar
		_SetMemoryInt
 This function uses a non-reentrant model


 *************** function _EEPROM_UNLOCK *****************
 Defined at:
		line 87 in file "EEPROM.c"
 Parameters:    Size  Location     Type
		None
 Auto vars:     Size  Location     Type
		None
 Return value:  Size  Location     Type
		None               void
 Registers used:
		wreg, status,2
 Tracked objects:
		On entry : 
		On exit  : 
		Unchanged: 
 Data sizes:     COMRAM   BANK0   BANK1   BANK2   BANK3   BANK4   BANK5   BANK6   BANK7   BANK8   BANK9  BANK10  BANK11  BANK12  BANK13  BANK14  BANK15
      Params:         0       0       0       0       0       0       0       0       0       0       0       0       0       0       0       0       0
      Locals:         0       0       0       0       0       0       0       0       0       0       0       0       0       0       0       0       0
      Temps:          0       0       0       0       0       0       0       0       0       0       0       0       0       0       0       0       0
      Totals:         0       0       0       0       0       0       0       0       0       0       0       0       0       0       0       0       0
Total ram usage:        0 bytes
 Hardware stack levels used:    1
 Hardware stack levels required when called:    6
 This function calls:
		Nothing
 This function is called by:
		_WriteEEPROM_1Byte
 This function uses a non-reentrant model


 *************** function _GetMemoryChar *****************
 Defined at:
		line 487 in file "EEPROM.c"
 Parameters:    Size  Location     Type
  AddressFirst    1    wreg     unsigned char 
 Auto vars:     Size  Location     Type
  AddressFirst    1   11[BANK0 ] unsigned char 
  H               1   12[BANK0 ] unsigned char 
 Return value:  Size  Location     Type
                  4    7[BANK0 ] unsigned long 
 Registers used:
		wreg, status,2, status,0, cstack
 Tracked objects:
		On entry : 
		On exit  : 
		Unchanged: 
 Data sizes:     COMRAM   BANK0   BANK1   BANK2   BANK3   BANK4   BANK5   BANK6   BANK7   BANK8   BANK9  BANK10  BANK11  BANK12  BANK13  BANK14  BANK15
      Params:         0       4       0       0       0       0       0       0       0       0       0       0       0       0       0       0       0
      Locals:         0       2       0       0       0       0       0       0       0       0       0       0       0       0       0       0       0
      Temps:          0       0       0       0       0       0       0       0       0       0       0       0       0       0       0       0       0
      Totals:         0       6       0       0       0       0       0       0       0       0       0       0       0       0       0       0       0
Total ram usage:        6 bytes
 Hardware stack levels used:    1
 Hardware stack levels required when called:    7
 This function calls:
		_ReadEEPROM_1Byte
 This function is called by:
		_GetEEPROM1
		_GetEEPROM2
		_SetMemoryChar
 This function uses a non-reentrant model


 *************** function _ReadEEPROM_1Byte *****************
 Defined at:
		line 55 in file "EEPROM.c"
 Parameters:    Size  Location     Type
  address         2    3[BANK0 ] unsigned int 
 Auto vars:     Size  Location     Type
  PEIEstatus      1    6[BANK0 ] unsigned char 
  GIEstatus       1    5[BANK0 ] unsigned char 
 Return value:  Size  Location     Type
                  2    3[BANK0 ] unsigned int 
 Registers used:
		wreg, status,2, status,0
 Tracked objects:
		On entry : 
		On exit  : 
		Unchanged: 
 Data sizes:     COMRAM   BANK0   BANK1   BANK2   BANK3   BANK4   BANK5   BANK6   BANK7   BANK8   BANK9  BANK10  BANK11  BANK12  BANK13  BANK14  BANK15
      Params:         0       2       0       0       0       0       0       0       0       0       0       0       0       0       0       0       0
      Locals:         0       2       0       0       0       0       0       0       0       0       0       0       0       0       0       0       0
      Temps:          0       0       0       0       0       0       0       0       0       0       0       0       0       0       0       0       0
      Totals:         0       4       0       0       0       0       0       0       0       0       0       0       0       0       0       0       0
Total ram usage:        4 bytes
 Hardware stack levels used:    1
 Hardware stack levels required when called:    6
 This function calls:
		Nothing
 This function is called by:
		_GetMemoryLong
		_GetMemoryChar
		_GetMemoryInt
 This function uses a non-reentrant model


 *************** function _BluetoothInitialSetup *****************
 Defined at:
		line 187 in file "Bluetooth.c"
 Parameters:    Size  Location     Type
  Default         1    wreg     unsigned char 
 Auto vars:     Size  Location     Type
  Default         1  183[BANK1 ] unsigned char 
  buf            50  132[BANK1 ] unsigned char [50]
  BluetoothVer   30   81[BANK1 ] unsigned char [30]
  BluetoothVer   30   51[BANK1 ] unsigned char [30]
  BroadcastTEM   21  111[BANK1 ] unsigned char [21]
  i               1  186[BANK1 ] unsigned char 
  ok              1  185[BANK1 ] unsigned char 
  j               1  184[BANK1 ] unsigned char 
  first           1  182[BANK1 ] unsigned char 
 Return value:  Size  Location     Type
                  1    wreg      unsigned char 
 Registers used:
		wreg, fsr0l, fsr0h, fsr1l, fsr1h, fsr2l, fsr2h, status,2, status,0, tblptrl, tblptrh, tblptru, prodl, prodh, cstack
 Tracked objects:
		On entry : 
		On exit  : 
		Unchanged: 
 Data sizes:     COMRAM   BANK0   BANK1   BANK2   BANK3   BANK4   BANK5   BANK6   BANK7   BANK8   BANK9  BANK10  BANK11  BANK12  BANK13  BANK14  BANK15
      Params:         0       0       0       0       0       0       0       0       0       0       0       0       0       0       0       0       0
      Locals:         0       0     136       0       0       0       0       0       0       0       0       0       0       0       0       0       0
      Temps:          0       1       0       0       0       0       0       0       0       0       0       0       0       0       0       0       0
      Totals:         0       1     136       0       0       0       0       0       0       0       0       0       0       0       0       0       0
Total ram usage:      137 bytes
 Hardware stack levels used:    1
 Hardware stack levels required when called:   11
 This function calls:
		_BufferCopy
		_ClearUSART
		_EnterCommandMode
		_StringContains
		_StringContainsCaseInsensitive
		_UARTstring
		_UARTstring_CONST
		_cleanBuffer
		_delayUS
		_sprintf
 This function is called by:
		_InitBluetooth
		_UseBluetooth
 This function uses a non-reentrant model


 *************** function _UARTstring *****************
 Defined at:
		line 231 in file "UART.c"
 Parameters:    Size  Location     Type
  data            2   13[BANK0 ] PTR unsigned char 
		 -> UseBluetooth@buf(100), BluetoothInitialSetup@buf(50), ReceivedString(100), 
 Auto vars:     Size  Location     Type
		None
 Return value:  Size  Location     Type
		None               void
 Registers used:
		wreg, fsr2l, fsr2h, status,2, status,0, cstack
 Tracked objects:
		On entry : 
		On exit  : 
		Unchanged: 
 Data sizes:     COMRAM   BANK0   BANK1   BANK2   BANK3   BANK4   BANK5   BANK6   BANK7   BANK8   BANK9  BANK10  BANK11  BANK12  BANK13  BANK14  BANK15
      Params:         0       2       0       0       0       0       0       0       0       0       0       0       0       0       0       0       0
      Locals:         0       0       0       0       0       0       0       0       0       0       0       0       0       0       0       0       0
      Temps:          0       0       0       0       0       0       0       0       0       0       0       0       0       0       0       0       0
      Totals:         0       2       0       0       0       0       0       0       0       0       0       0       0       0       0       0       0
Total ram usage:        2 bytes
 Hardware stack levels used:    1
 Hardware stack levels required when called:    8
 This function calls:
		_UARTchar
 This function is called by:
		_BluetoothInitialSetup
		_UseBluetooth
 This function uses a non-reentrant model


 *************** function _UARTchar *****************
 Defined at:
		line 194 in file "UART.c"
 Parameters:    Size  Location     Type
  data            1    wreg     unsigned char 
 Auto vars:     Size  Location     Type
  data            1   12[BANK0 ] unsigned char 
 Return value:  Size  Location     Type
		None               void
 Registers used:
		wreg, status,2, status,0, cstack
 Tracked objects:
		On entry : 
		On exit  : 
		Unchanged: 
 Data sizes:     COMRAM   BANK0   BANK1   BANK2   BANK3   BANK4   BANK5   BANK6   BANK7   BANK8   BANK9  BANK10  BANK11  BANK12  BANK13  BANK14  BANK15
      Params:         0       0       0       0       0       0       0       0       0       0       0       0       0       0       0       0       0
      Locals:         0       1       0       0       0       0       0       0       0       0       0       0       0       0       0       0       0
      Temps:          0       0       0       0       0       0       0       0       0       0       0       0       0       0       0       0       0
      Totals:         0       1       0       0       0       0       0       0       0       0       0       0       0       0       0       0       0
Total ram usage:        1 bytes
 Hardware stack levels used:    1
 Hardware stack levels required when called:    7
 This function calls:
		_delayUS
 This function is called by:
		_main
		_UARTstring
		_UARTstringCRLN
		_UARTcommandMenu
		_UseBluetooth
 This function uses a non-reentrant model


 *************** function _StringContainsCaseInsensitive *****************
 Defined at:
		line 351 in file "MISC.c"
 Parameters:    Size  Location     Type
  This            2    6[BANK0 ] PTR const unsigned char 
		 -> Conf2_Channels(4), Conf1_Channels(4), CommandString(100), main@BluetoothString(100), 
  That            2    8[BANK0 ] PTR const unsigned char 
		 -> STR_68(4), STR_67(7), STR_66(7), STR_65(9), 
		 -> STR_64(7), STR_50(4), STR_49(13), STR_28(4), 
		 -> STR_26(6), STR_24(6), UseBluetooth@rfchannelSTR(10), BluetoothInitialSetup@buf(50), 
 Auto vars:     Size  Location     Type
  i               1   16[BANK0 ] unsigned char 
  tempThat        1   15[BANK0 ] unsigned char 
  tempThis        1   14[BANK0 ] unsigned char 
  MatchCount      1   13[BANK0 ] unsigned char 
  MatchAmount     1   12[BANK0 ] unsigned char 
 Return value:  Size  Location     Type
                  1    wreg      unsigned char 
 Registers used:
		wreg, fsr0l, fsr0h, fsr2l, fsr2h, status,2, status,0, tblptrl, tblptrh, tblptru, prodl, prodh, cstack
 Tracked objects:
		On entry : 
		On exit  : 
		Unchanged: 
 Data sizes:     COMRAM   BANK0   BANK1   BANK2   BANK3   BANK4   BANK5   BANK6   BANK7   BANK8   BANK9  BANK10  BANK11  BANK12  BANK13  BANK14  BANK15
      Params:         0       4       0       0       0       0       0       0       0       0       0       0       0       0       0       0       0
      Locals:         0       5       0       0       0       0       0       0       0       0       0       0       0       0       0       0       0
      Temps:          0       2       0       0       0       0       0       0       0       0       0       0       0       0       0       0       0
      Totals:         0      11       0       0       0       0       0       0       0       0       0       0       0       0       0       0       0
Total ram usage:       11 bytes
 Hardware stack levels used:    1
 Hardware stack levels required when called:    7
 This function calls:
		_lowercaseChar
 This function is called by:
		_BluetoothInitialSetup
		_UseBluetooth
 This function uses a non-reentrant model


 *************** function _lowercaseChar *****************
 Defined at:
		line 423 in file "MISC.c"
 Parameters:    Size  Location     Type
  Input           2    3[BANK0 ] PTR unsigned char 
		 -> GetNumberUnsigned@tempThis(1), GetNumber@tempThis(1), StringContainsCaseInsensitive@tempThat(1), StringContainsCaseInsensitive@tempThis(1), 
		 -> StringMatchCaseInsensitive@tempThat(1), StringMatchCaseInsensitive@tempThis(1), 
 Auto vars:     Size  Location     Type
		None
 Return value:  Size  Location     Type
		None               void
 Registers used:
		wreg, fsr2l, fsr2h, status,2, status,0
 Tracked objects:
		On entry : 
		On exit  : 
		Unchanged: 
 Data sizes:     COMRAM   BANK0   BANK1   BANK2   BANK3   BANK4   BANK5   BANK6   BANK7   BANK8   BANK9  BANK10  BANK11  BANK12  BANK13  BANK14  BANK15
      Params:         0       2       0       0       0       0       0       0       0       0       0       0       0       0       0       0       0
      Locals:         0       0       0       0       0       0       0       0       0       0       0       0       0       0       0       0       0
      Temps:          0       1       0       0       0       0       0       0       0       0       0       0       0       0       0       0       0
      Totals:         0       3       0       0       0       0       0       0       0       0       0       0       0       0       0       0       0
Total ram usage:        3 bytes
 Hardware stack levels used:    1
 Hardware stack levels required when called:    6
 This function calls:
		Nothing
 This function is called by:
		_StringMatchCaseInsensitive
		_StringContainsCaseInsensitive
		_GetNumber
		_GetNumberUnsigned
 This function uses a non-reentrant model


 *************** function _EnterCommandMode *****************
 Defined at:
		line 143 in file "Bluetooth.c"
 Parameters:    Size  Location     Type
		None
 Auto vars:     Size  Location     Type
  buf            50    0[BANK1 ] unsigned char [50]
  count           1   50[BANK1 ] unsigned char 
 Return value:  Size  Location     Type
                  1    wreg      unsigned char 
 Registers used:
		wreg, fsr0l, fsr0h, fsr2l, fsr2h, status,2, status,0, tblptrl, tblptrh, tblptru, prodl, prodh, cstack
 Tracked objects:
		On entry : 
		On exit  : 
		Unchanged: 
 Data sizes:     COMRAM   BANK0   BANK1   BANK2   BANK3   BANK4   BANK5   BANK6   BANK7   BANK8   BANK9  BANK10  BANK11  BANK12  BANK13  BANK14  BANK15
      Params:         0       0       0       0       0       0       0       0       0       0       0       0       0       0       0       0       0
      Locals:         0       0      51       0       0       0       0       0       0       0       0       0       0       0       0       0       0
      Temps:          0       0       0       0       0       0       0       0       0       0       0       0       0       0       0       0       0
      Totals:         0       0      51       0       0       0       0       0       0       0       0       0       0       0       0       0       0
Total ram usage:       51 bytes
 Hardware stack levels used:    1
 Hardware stack levels required when called:   10
 This function calls:
		_BlueConnected
		_ClearUSART
		_ResetBlue
		_StringContains
		_UARTstring_CONST
		_cleanBuffer
		_delayUS
		_sprintf
 This function is called by:
		_BluetoothInitialSetup
 This function uses a non-reentrant model


 *************** function _sprintf *****************
 Defined at:
		line 492 in file "C:\Program Files (x86)\Microchip\xc8\v1.34\sources\common\doprnt.c"
 Parameters:    Size  Location     Type
  sp              2   81[BANK0 ] PTR unsigned char 
		 -> UseBluetooth@buf(100), BluetoothInitialSetup@buf(50), EnterCommandMode@buf(50), Init_System@buf(50), 
		 -> main@buf(100), 
  f               2   83[BANK0 ] PTR const unsigned char 
		 -> STR_144(19), STR_142(15), STR_124(19), STR_122(27), 
		 -> STR_121(16), STR_118(21), STR_116(20), STR_101(27), 
		 -> STR_88(44), STR_87(54), STR_86(64), STR_85(54), 
		 -> STR_84(63), STR_72(52), STR_71(42), STR_55(44), 
		 -> STR_54(46), STR_52(44), STR_51(21), STR_37(17), 
		 -> STR_36(17), STR_35(20), STR_33(23), STR_32(21), 
		 -> STR_31(21), STR_21(4), STR_19(11), STR_18(28), 
		 -> STR_12(4), STR_11(7), STR_10(4), STR_9(24), 
		 -> STR_7(4), STR_5(23), STR_4(15), STR_1(50), 
 Auto vars:     Size  Location     Type
  idx             1  104[BANK0 ] unsigned char 
  val             4  119[BANK0 ] unsigned long 
  tmpval          4  113[BANK0 ] struct .
  fval            3  123[BANK0 ] struct .
  flag            2  128[BANK0 ] unsigned short 
  width           2  126[BANK0 ] int 
  exp             2  117[BANK0 ] int 
  prec            2  111[BANK0 ] int 
  ap              2  109[BANK0 ] PTR void [1]
		 -> ?_sprintf(2), 
  len             2  107[BANK0 ] unsigned int 
  cp              2  105[BANK0 ] PTR const unsigned char 
		 -> STR_197(7), sprintf@c(1), Frequency(4), PCBVersion(5), 
		 -> FirmVersion(9), BluetoothInitialSetup@BroadcastTEMP(21), GetNumber@temp(4), main@BroadcastTEMP(21), 
  c               1  130[BANK0 ] char 
  d               1    0        unsigned char 
 Return value:  Size  Location     Type
                  2   81[BANK0 ] int 
 Registers used:
		wreg, fsr0l, fsr0h, fsr2l, fsr2h, status,2, status,0, tblptrl, tblptrh, tblptru, prodl, prodh, cstack
 Tracked objects:
		On entry : 
		On exit  : 
		Unchanged: 
 Data sizes:     COMRAM   BANK0   BANK1   BANK2   BANK3   BANK4   BANK5   BANK6   BANK7   BANK8   BANK9  BANK10  BANK11  BANK12  BANK13  BANK14  BANK15
      Params:         0      14       0       0       0       0       0       0       0       0       0       0       0       0       0       0       0
      Locals:         0      30       0       0       0       0       0       0       0       0       0       0       0       0       0       0       0
      Temps:          0       6       0       0       0       0       0       0       0       0       0       0       0       0       0       0       0
      Totals:         0      50       0       0       0       0       0       0       0       0       0       0       0       0       0       0       0
Total ram usage:       50 bytes
 Hardware stack levels used:    1
 Hardware stack levels required when called:    9
 This function calls:
		___awdiv
		___ftadd
		___ftge
		___ftmul
		___ftneg
		___ftsub
		___fttol
		___lldiv
		___llmod
		___lltoft
		___wmul
		__div_to_l_
		__tdiv_to_l_
		_fround
		_isdigit
		_scale
 This function is called by:
		_main
		_Init_System
		_EnterCommandMode
		_BluetoothInitialSetup
		_UseBluetooth
 This function uses a non-reentrant model


 *************** function _scale *****************
 Defined at:
		line 425 in file "C:\Program Files (x86)\Microchip\xc8\v1.34\sources\common\doprnt.c"
 Parameters:    Size  Location     Type
  scl             1    wreg     char 
 Auto vars:     Size  Location     Type
  scl             1   50[BANK0 ] char 
 Return value:  Size  Location     Type
                  3   44[BANK0 ] char 
 Registers used:
		wreg, status,2, status,0, tblptrl, tblptrh, tblptru, prodl, prodh, cstack
 Tracked objects:
		On entry : 
		On exit  : 
		Unchanged: 
 Data sizes:     COMRAM   BANK0   BANK1   BANK2   BANK3   BANK4   BANK5   BANK6   BANK7   BANK8   BANK9  BANK10  BANK11  BANK12  BANK13  BANK14  BANK15
      Params:         0       3       0       0       0       0       0       0       0       0       0       0       0       0       0       0       0
      Locals:         0       4       0       0       0       0       0       0       0       0       0       0       0       0       0       0       0
      Temps:          0       0       0       0       0       0       0       0       0       0       0       0       0       0       0       0       0
      Totals:         0       7       0       0       0       0       0       0       0       0       0       0       0       0       0       0       0
Total ram usage:        7 bytes
 Hardware stack levels used:    1
 Hardware stack levels required when called:    8
 This function calls:
		___awdiv
		___awmod
		___ftmul
		___wmul
 This function is called by:
		_sprintf
 This function uses a non-reentrant model


 *************** function _isdigit *****************
 Defined at:
		line 8 in file "C:\Program Files (x86)\Microchip\xc8\v1.34\sources\common\isdigit.c"
 Parameters:    Size  Location     Type
  c               1    wreg     unsigned char 
 Auto vars:     Size  Location     Type
  c               1    5[BANK0 ] unsigned char 
 Return value:  Size  Location     Type
		None               void
 Registers used:
		wreg, status,2, status,0
 Tracked objects:
		On entry : 
		On exit  : 
		Unchanged: 
 Data sizes:     COMRAM   BANK0   BANK1   BANK2   BANK3   BANK4   BANK5   BANK6   BANK7   BANK8   BANK9  BANK10  BANK11  BANK12  BANK13  BANK14  BANK15
      Params:         0       0       0       0       0       0       0       0       0       0       0       0       0       0       0       0       0
      Locals:         0       2       0       0       0       0       0       0       0       0       0       0       0       0       0       0       0
      Temps:          0       1       0       0       0       0       0       0       0       0       0       0       0       0       0       0       0
      Totals:         0       3       0       0       0       0       0       0       0       0       0       0       0       0       0       0       0
Total ram usage:        3 bytes
 Hardware stack levels used:    1
 Hardware stack levels required when called:    6
 This function calls:
		Nothing
 This function is called by:
		_sprintf
 This function uses a non-reentrant model


 *************** function _fround *****************
 Defined at:
		line 409 in file "C:\Program Files (x86)\Microchip\xc8\v1.34\sources\common\doprnt.c"
 Parameters:    Size  Location     Type
  prec            1    wreg     unsigned char 
 Auto vars:     Size  Location     Type
  prec            1   53[BANK0 ] unsigned char 
 Return value:  Size  Location     Type
                  3   44[BANK0 ] unsigned char 
 Registers used:
		wreg, status,2, status,0, tblptrl, tblptrh, tblptru, prodl, prodh, cstack
 Tracked objects:
		On entry : 
		On exit  : 
		Unchanged: 
 Data sizes:     COMRAM   BANK0   BANK1   BANK2   BANK3   BANK4   BANK5   BANK6   BANK7   BANK8   BANK9  BANK10  BANK11  BANK12  BANK13  BANK14  BANK15
      Params:         0       3       0       0       0       0       0       0       0       0       0       0       0       0       0       0       0
      Locals:         0       7       0       0       0       0       0       0       0       0       0       0       0       0       0       0       0
      Temps:          0       0       0       0       0       0       0       0       0       0       0       0       0       0       0       0       0
      Totals:         0      10       0       0       0       0       0       0       0       0       0       0       0       0       0       0       0
Total ram usage:       10 bytes
 Hardware stack levels used:    1
 Hardware stack levels required when called:    8
 This function calls:
		___awdiv
		___awmod
		___ftmul
		___wmul
 This function is called by:
		_sprintf
 This function uses a non-reentrant model


 *************** function ___wmul *****************
 Defined at:
		line 15 in file "C:\Program Files (x86)\Microchip\xc8\v1.34\sources\common\Umul16.c"
 Parameters:    Size  Location     Type
  multiplier      2   17[BANK0 ] unsigned int 
  multiplicand    2   19[BANK0 ] unsigned int 
 Auto vars:     Size  Location     Type
  product         2   21[BANK0 ] unsigned int 
 Return value:  Size  Location     Type
                  2   17[BANK0 ] unsigned int 
 Registers used:
		wreg, status,2, status,0, prodl, prodh
 Tracked objects:
		On entry : 
		On exit  : 
		Unchanged: 
 Data sizes:     COMRAM   BANK0   BANK1   BANK2   BANK3   BANK4   BANK5   BANK6   BANK7   BANK8   BANK9  BANK10  BANK11  BANK12  BANK13  BANK14  BANK15
      Params:         0       4       0       0       0       0       0       0       0       0       0       0       0       0       0       0       0
      Locals:         0       2       0       0       0       0       0       0       0       0       0       0       0       0       0       0       0
      Temps:          0       0       0       0       0       0       0       0       0       0       0       0       0       0       0       0       0
      Totals:         0       6       0       0       0       0       0       0       0       0       0       0       0       0       0       0       0
Total ram usage:        6 bytes
 Hardware stack levels used:    1
 Hardware stack levels required when called:    6
 This function calls:
		Nothing
 This function is called by:
		_fround
		_scale
		_sprintf
 This function uses a non-reentrant model


 *************** function ___ftmul *****************
 Defined at:
		line 62 in file "C:\Program Files (x86)\Microchip\xc8\v1.34\sources\common\ftmul.c"
 Parameters:    Size  Location     Type
  f1              3   29[BANK0 ] float 
  f2              3   32[BANK0 ] float 
 Auto vars:     Size  Location     Type
  f3_as_produc    3   39[BANK0 ] unsigned um
  sign            1   43[BANK0 ] unsigned char 
  cntr            1   42[BANK0 ] unsigned char 
  exp             1   38[BANK0 ] unsigned char 
 Return value:  Size  Location     Type
                  3   29[BANK0 ] float 
 Registers used:
		wreg, status,2, status,0, cstack
 Tracked objects:
		On entry : 
		On exit  : 
		Unchanged: 
 Data sizes:     COMRAM   BANK0   BANK1   BANK2   BANK3   BANK4   BANK5   BANK6   BANK7   BANK8   BANK9  BANK10  BANK11  BANK12  BANK13  BANK14  BANK15
      Params:         0       6       0       0       0       0       0       0       0       0       0       0       0       0       0       0       0
      Locals:         0       6       0       0       0       0       0       0       0       0       0       0       0       0       0       0       0
      Temps:          0       3       0       0       0       0       0       0       0       0       0       0       0       0       0       0       0
      Totals:         0      15       0       0       0       0       0       0       0       0       0       0       0       0       0       0       0
Total ram usage:       15 bytes
 Hardware stack levels used:    1
 Hardware stack levels required when called:    7
 This function calls:
		___ftpack
 This function is called by:
		_ReadVoltage
		_fround
		_scale
		_sprintf
 This function uses a non-reentrant model


 *************** function ___awmod *****************
 Defined at:
		line 8 in file "C:\Program Files (x86)\Microchip\xc8\v1.34\sources\common\awmod.c"
 Parameters:    Size  Location     Type
  dividend        2    3[BANK0 ] int 
  divisor         2    5[BANK0 ] int 
 Auto vars:     Size  Location     Type
  sign            1    8[BANK0 ] unsigned char 
  counter         1    7[BANK0 ] unsigned char 
 Return value:  Size  Location     Type
                  2    3[BANK0 ] int 
 Registers used:
		wreg, status,2, status,0
 Tracked objects:
		On entry : 
		On exit  : 
		Unchanged: 
 Data sizes:     COMRAM   BANK0   BANK1   BANK2   BANK3   BANK4   BANK5   BANK6   BANK7   BANK8   BANK9  BANK10  BANK11  BANK12  BANK13  BANK14  BANK15
      Params:         0       4       0       0       0       0       0       0       0       0       0       0       0       0       0       0       0
      Locals:         0       2       0       0       0       0       0       0       0       0       0       0       0       0       0       0       0
      Temps:          0       0       0       0       0       0       0       0       0       0       0       0       0       0       0       0       0
      Totals:         0       6       0       0       0       0       0       0       0       0       0       0       0       0       0       0       0
Total ram usage:        6 bytes
 Hardware stack levels used:    1
 Hardware stack levels required when called:    6
 This function calls:
		Nothing
 This function is called by:
		_fround
		_scale
 This function uses a non-reentrant model


 *************** function ___awdiv *****************
 Defined at:
		line 8 in file "C:\Program Files (x86)\Microchip\xc8\v1.34\sources\common\awdiv.c"
 Parameters:    Size  Location     Type
  dividend        2    9[BANK0 ] int 
  divisor         2   11[BANK0 ] int 
 Auto vars:     Size  Location     Type
  quotient        2   15[BANK0 ] int 
  sign            1   14[BANK0 ] unsigned char 
  counter         1   13[BANK0 ] unsigned char 
 Return value:  Size  Location     Type
                  2    9[BANK0 ] int 
 Registers used:
		wreg, status,2, status,0
 Tracked objects:
		On entry : 
		On exit  : 
		Unchanged: 
 Data sizes:     COMRAM   BANK0   BANK1   BANK2   BANK3   BANK4   BANK5   BANK6   BANK7   BANK8   BANK9  BANK10  BANK11  BANK12  BANK13  BANK14  BANK15
      Params:         0       4       0       0       0       0       0       0       0       0       0       0       0       0       0       0       0
      Locals:         0       4       0       0       0       0       0       0       0       0       0       0       0       0       0       0       0
      Temps:          0       0       0       0       0       0       0       0       0       0       0       0       0       0       0       0       0
      Totals:         0       8       0       0       0       0       0       0       0       0       0       0       0       0       0       0       0
Total ram usage:        8 bytes
 Hardware stack levels used:    1
 Hardware stack levels required when called:    6
 This function calls:
		Nothing
 This function is called by:
		_fround
		_scale
		_sprintf
 This function uses a non-reentrant model


 *************** function __tdiv_to_l_ *****************
 Defined at:
		line 60 in file "C:\Program Files (x86)\Microchip\xc8\v1.34\sources\common\ftdivl.c"
 Parameters:    Size  Location     Type
  f1              3    3[BANK0 ] float 
  f2              3    6[BANK0 ] float 
 Auto vars:     Size  Location     Type
  quot            4   12[BANK0 ] unsigned long 
  exp1            1   17[BANK0 ] unsigned char 
  cntr            1   16[BANK0 ] unsigned char 
 Return value:  Size  Location     Type
                  4    3[BANK0 ] unsigned long 
 Registers used:
		wreg, status,2, status,0
 Tracked objects:
		On entry : 
		On exit  : 
		Unchanged: 
 Data sizes:     COMRAM   BANK0   BANK1   BANK2   BANK3   BANK4   BANK5   BANK6   BANK7   BANK8   BANK9  BANK10  BANK11  BANK12  BANK13  BANK14  BANK15
      Params:         0       6       0       0       0       0       0       0       0       0       0       0       0       0       0       0       0
      Locals:         0       6       0       0       0       0       0       0       0       0       0       0       0       0       0       0       0
      Temps:          0       3       0       0       0       0       0       0       0       0       0       0       0       0       0       0       0
      Totals:         0      15       0       0       0       0       0       0       0       0       0       0       0       0       0       0       0
Total ram usage:       15 bytes
 Hardware stack levels used:    1
 Hardware stack levels required when called:    6
 This function calls:
		Nothing
 This function is called by:
		_sprintf
 This function uses a non-reentrant model


 *************** function __div_to_l_ *****************
 Defined at:
		line 60 in file "C:\Program Files (x86)\Microchip\xc8\v1.34\sources\common\fldivl.c"
 Parameters:    Size  Location     Type
  f1              3    3[BANK0 ] unsigned long 
  f2              3    6[BANK0 ] unsigned long 
 Auto vars:     Size  Location     Type
  quot            4    9[BANK0 ] unsigned long 
  exp1            1   14[BANK0 ] unsigned char 
  cntr            1   13[BANK0 ] unsigned char 
 Return value:  Size  Location     Type
                  4    3[BANK0 ] unsigned long 
 Registers used:
		wreg, status,2, status,0
 Tracked objects:
		On entry : 
		On exit  : 
		Unchanged: 
 Data sizes:     COMRAM   BANK0   BANK1   BANK2   BANK3   BANK4   BANK5   BANK6   BANK7   BANK8   BANK9  BANK10  BANK11  BANK12  BANK13  BANK14  BANK15
      Params:         0       6       0       0       0       0       0       0       0       0       0       0       0       0       0       0       0
      Locals:         0       6       0       0       0       0       0       0       0       0       0       0       0       0       0       0       0
      Temps:          0       0       0       0       0       0       0       0       0       0       0       0       0       0       0       0       0
      Totals:         0      12       0       0       0       0       0       0       0       0       0       0       0       0       0       0       0
Total ram usage:       12 bytes
 Hardware stack levels used:    1
 Hardware stack levels required when called:    6
 This function calls:
		Nothing
 This function is called by:
		_sprintf
 This function uses a non-reentrant model


 *************** function ___lltoft *****************
 Defined at:
		line 35 in file "C:\Program Files (x86)\Microchip\xc8\v1.34\sources\common\lltoft.c"
 Parameters:    Size  Location     Type
  c               4   11[BANK0 ] unsigned long 
 Auto vars:     Size  Location     Type
  exp             1   19[BANK0 ] unsigned char 
 Return value:  Size  Location     Type
                  3   11[BANK0 ] float 
 Registers used:
		wreg, status,2, status,0, cstack
 Tracked objects:
		On entry : 
		On exit  : 
		Unchanged: 
 Data sizes:     COMRAM   BANK0   BANK1   BANK2   BANK3   BANK4   BANK5   BANK6   BANK7   BANK8   BANK9  BANK10  BANK11  BANK12  BANK13  BANK14  BANK15
      Params:         0       4       0       0       0       0       0       0       0       0       0       0       0       0       0       0       0
      Locals:         0       1       0       0       0       0       0       0       0       0       0       0       0       0       0       0       0
      Temps:          0       4       0       0       0       0       0       0       0       0       0       0       0       0       0       0       0
      Totals:         0       9       0       0       0       0       0       0       0       0       0       0       0       0       0       0       0
Total ram usage:        9 bytes
 Hardware stack levels used:    1
 Hardware stack levels required when called:    7
 This function calls:
		___ftpack
 This function is called by:
		_InitUART
		_sprintf
 This function uses a non-reentrant model


 *************** function ___llmod *****************
 Defined at:
		line 8 in file "C:\Program Files (x86)\Microchip\xc8\v1.34\sources\common\llmod.c"
 Parameters:    Size  Location     Type
  dividend        4   16[BANK0 ] unsigned long 
  divisor         4   20[BANK0 ] unsigned long 
 Auto vars:     Size  Location     Type
  counter         1   24[BANK0 ] unsigned char 
 Return value:  Size  Location     Type
                  4   16[BANK0 ] unsigned long 
 Registers used:
		wreg, status,2, status,0
 Tracked objects:
		On entry : 
		On exit  : 
		Unchanged: 
 Data sizes:     COMRAM   BANK0   BANK1   BANK2   BANK3   BANK4   BANK5   BANK6   BANK7   BANK8   BANK9  BANK10  BANK11  BANK12  BANK13  BANK14  BANK15
      Params:         0       8       0       0       0       0       0       0       0       0       0       0       0       0       0       0       0
      Locals:         0       1       0       0       0       0       0       0       0       0       0       0       0       0       0       0       0
      Temps:          0       0       0       0       0       0       0       0       0       0       0       0       0       0       0       0       0
      Totals:         0       9       0       0       0       0       0       0       0       0       0       0       0       0       0       0       0
Total ram usage:        9 bytes
 Hardware stack levels used:    1
 Hardware stack levels required when called:    6
 This function calls:
		Nothing
 This function is called by:
		_sprintf
 This function uses a non-reentrant model


 *************** function ___lldiv *****************
 Defined at:
		line 8 in file "C:\Program Files (x86)\Microchip\xc8\v1.34\sources\common\lldiv.c"
 Parameters:    Size  Location     Type
  dividend        4    3[BANK0 ] unsigned long 
  divisor         4    7[BANK0 ] unsigned long 
 Auto vars:     Size  Location     Type
  quotient        4   11[BANK0 ] unsigned long 
  counter         1   15[BANK0 ] unsigned char 
 Return value:  Size  Location     Type
                  4    3[BANK0 ] unsigned long 
 Registers used:
		wreg, status,2, status,0
 Tracked objects:
		On entry : 
		On exit  : 
		Unchanged: 
 Data sizes:     COMRAM   BANK0   BANK1   BANK2   BANK3   BANK4   BANK5   BANK6   BANK7   BANK8   BANK9  BANK10  BANK11  BANK12  BANK13  BANK14  BANK15
      Params:         0       8       0       0       0       0       0       0       0       0       0       0       0       0       0       0       0
      Locals:         0       5       0       0       0       0       0       0       0       0       0       0       0       0       0       0       0
      Temps:          0       0       0       0       0       0       0       0       0       0       0       0       0       0       0       0       0
      Totals:         0      13       0       0       0       0       0       0       0       0       0       0       0       0       0       0       0
Total ram usage:       13 bytes
 Hardware stack levels used:    1
 Hardware stack levels required when called:    6
 This function calls:
		Nothing
 This function is called by:
		_InitUART
		_sprintf
 This function uses a non-reentrant model


 *************** function ___fttol *****************
 Defined at:
		line 44 in file "C:\Program Files (x86)\Microchip\xc8\v1.34\sources\common\fttol.c"
 Parameters:    Size  Location     Type
  f1              3   66[BANK0 ] float 
 Auto vars:     Size  Location     Type
  lval            4   76[BANK0 ] unsigned long 
  exp1            1   80[BANK0 ] unsigned char 
  sign1           1   75[BANK0 ] unsigned char 
 Return value:  Size  Location     Type
                  4   66[BANK0 ] long 
 Registers used:
		wreg, status,2, status,0
 Tracked objects:
		On entry : 
		On exit  : 
		Unchanged: 
 Data sizes:     COMRAM   BANK0   BANK1   BANK2   BANK3   BANK4   BANK5   BANK6   BANK7   BANK8   BANK9  BANK10  BANK11  BANK12  BANK13  BANK14  BANK15
      Params:         0       4       0       0       0       0       0       0       0       0       0       0       0       0       0       0       0
      Locals:         0       6       0       0       0       0       0       0       0       0       0       0       0       0       0       0       0
      Temps:          0       5       0       0       0       0       0       0       0       0       0       0       0       0       0       0       0
      Totals:         0      15       0       0       0       0       0       0       0       0       0       0       0       0       0       0       0
Total ram usage:       15 bytes
 Hardware stack levels used:    1
 Hardware stack levels required when called:    6
 This function calls:
		Nothing
 This function is called by:
		_Round
		_InitUART
		_sprintf
 This function uses a non-reentrant model


 *************** function ___ftsub *****************
 Defined at:
		line 20 in file "C:\Program Files (x86)\Microchip\xc8\v1.34\sources\common\ftsub.c"
 Parameters:    Size  Location     Type
  f1              3   66[BANK0 ] float 
  f2              3   69[BANK0 ] float 
 Auto vars:     Size  Location     Type
		None
 Return value:  Size  Location     Type
                  3   66[BANK0 ] float 
 Registers used:
		wreg, status,2, status,0, cstack
 Tracked objects:
		On entry : 
		On exit  : 
		Unchanged: 
 Data sizes:     COMRAM   BANK0   BANK1   BANK2   BANK3   BANK4   BANK5   BANK6   BANK7   BANK8   BANK9  BANK10  BANK11  BANK12  BANK13  BANK14  BANK15
      Params:         0       6       0       0       0       0       0       0       0       0       0       0       0       0       0       0       0
      Locals:         0       0       0       0       0       0       0       0       0       0       0       0       0       0       0       0       0
      Temps:          0       0       0       0       0       0       0       0       0       0       0       0       0       0       0       0       0
      Totals:         0       6       0       0       0       0       0       0       0       0       0       0       0       0       0       0       0
Total ram usage:        6 bytes
 Hardware stack levels used:    1
 Hardware stack levels required when called:    8
 This function calls:
		___ftadd
 This function is called by:
		_main
		_sprintf
 This function uses a non-reentrant model


 *************** function ___ftadd *****************
 Defined at:
		line 86 in file "C:\Program Files (x86)\Microchip\xc8\v1.34\sources\common\ftadd.c"
 Parameters:    Size  Location     Type
  f1              3   54[BANK0 ] float 
  f2              3   57[BANK0 ] float 
 Auto vars:     Size  Location     Type
  exp1            1   65[BANK0 ] unsigned char 
  exp2            1   64[BANK0 ] unsigned char 
  sign            1   63[BANK0 ] unsigned char 
 Return value:  Size  Location     Type
                  3   54[BANK0 ] float 
 Registers used:
		wreg, status,2, status,0, cstack
 Tracked objects:
		On entry : 
		On exit  : 
		Unchanged: 
 Data sizes:     COMRAM   BANK0   BANK1   BANK2   BANK3   BANK4   BANK5   BANK6   BANK7   BANK8   BANK9  BANK10  BANK11  BANK12  BANK13  BANK14  BANK15
      Params:         0       6       0       0       0       0       0       0       0       0       0       0       0       0       0       0       0
      Locals:         0       3       0       0       0       0       0       0       0       0       0       0       0       0       0       0       0
      Temps:          0       3       0       0       0       0       0       0       0       0       0       0       0       0       0       0       0
      Totals:         0      12       0       0       0       0       0       0       0       0       0       0       0       0       0       0       0
Total ram usage:       12 bytes
 Hardware stack levels used:    1
 Hardware stack levels required when called:    7
 This function calls:
		___ftpack
 This function is called by:
		_main
		_Round
		_sprintf
		___ftsub
 This function uses a non-reentrant model


 *************** function ___ftpack *****************
 Defined at:
		line 62 in file "C:\Program Files (x86)\Microchip\xc8\v1.34\sources\common\float.c"
 Parameters:    Size  Location     Type
  arg             3    3[BANK0 ] unsigned um
  exp             1    6[BANK0 ] unsigned char 
  sign            1    7[BANK0 ] unsigned char 
 Auto vars:     Size  Location     Type
		None
 Return value:  Size  Location     Type
                  3    3[BANK0 ] float 
 Registers used:
		wreg, status,2, status,0
 Tracked objects:
		On entry : 
		On exit  : 
		Unchanged: 
 Data sizes:     COMRAM   BANK0   BANK1   BANK2   BANK3   BANK4   BANK5   BANK6   BANK7   BANK8   BANK9  BANK10  BANK11  BANK12  BANK13  BANK14  BANK15
      Params:         0       5       0       0       0       0       0       0       0       0       0       0       0       0       0       0       0
      Locals:         0       0       0       0       0       0       0       0       0       0       0       0       0       0       0       0       0
      Temps:          0       3       0       0       0       0       0       0       0       0       0       0       0       0       0       0       0
      Totals:         0       8       0       0       0       0       0       0       0       0       0       0       0       0       0       0       0
Total ram usage:        8 bytes
 Hardware stack levels used:    1
 Hardware stack levels required when called:    6
 This function calls:
		Nothing
 This function is called by:
		___altoft
		___ftadd
		___ftdiv
		___ftmul
		___lltoft
		___lwtoft
 This function uses a non-reentrant model


 *************** function ___ftneg *****************
 Defined at:
		line 15 in file "C:\Program Files (x86)\Microchip\xc8\v1.34\sources\common\ftneg.c"
 Parameters:    Size  Location     Type
  f1              3    3[BANK0 ] float 
 Auto vars:     Size  Location     Type
		None
 Return value:  Size  Location     Type
                  3    3[BANK0 ] float 
 Registers used:
		wreg, status,2, status,0
 Tracked objects:
		On entry : 
		On exit  : 
		Unchanged: 
 Data sizes:     COMRAM   BANK0   BANK1   BANK2   BANK3   BANK4   BANK5   BANK6   BANK7   BANK8   BANK9  BANK10  BANK11  BANK12  BANK13  BANK14  BANK15
      Params:         0       3       0       0       0       0       0       0       0       0       0       0       0       0       0       0       0
      Locals:         0       0       0       0       0       0       0       0       0       0       0       0       0       0       0       0       0
      Temps:          0       0       0       0       0       0       0       0       0       0       0       0       0       0       0       0       0
      Totals:         0       3       0       0       0       0       0       0       0       0       0       0       0       0       0       0       0
Total ram usage:        3 bytes
 Hardware stack levels used:    1
 Hardware stack levels required when called:    6
 This function calls:
		Nothing
 This function is called by:
		_sprintf
 This function uses a non-reentrant model


 *************** function ___ftge *****************
 Defined at:
		line 4 in file "C:\Program Files (x86)\Microchip\xc8\v1.34\sources\common\ftge.c"
 Parameters:    Size  Location     Type
  ff1             3    3[BANK0 ] float 
  ff2             3    6[BANK0 ] float 
 Auto vars:     Size  Location     Type
		None
 Return value:  Size  Location     Type
		None               void
 Registers used:
		wreg, status,2, status,0
 Tracked objects:
		On entry : 
		On exit  : 
		Unchanged: 
 Data sizes:     COMRAM   BANK0   BANK1   BANK2   BANK3   BANK4   BANK5   BANK6   BANK7   BANK8   BANK9  BANK10  BANK11  BANK12  BANK13  BANK14  BANK15
      Params:         0       6       0       0       0       0       0       0       0       0       0       0       0       0       0       0       0
      Locals:         0       0       0       0       0       0       0       0       0       0       0       0       0       0       0       0       0
      Temps:          0       3       0       0       0       0       0       0       0       0       0       0       0       0       0       0       0
      Totals:         0       9       0       0       0       0       0       0       0       0       0       0       0       0       0       0       0
Total ram usage:        9 bytes
 Hardware stack levels used:    1
 Hardware stack levels required when called:    6
 This function calls:
		Nothing
 This function is called by:
		_main
		_sprintf
 This function uses a non-reentrant model


 *************** function _UARTstring_CONST *****************
 Defined at:
		line 245 in file "UART.c"
 Parameters:    Size  Location     Type
  data            2   14[BANK0 ] PTR const unsigned char 
		 -> Conf2_ChannelH_3_STR(17), Conf2_ChannelH_2_STR(17), Conf2_ChannelH_1_STR(17), Conf2_ChannelD_STR(15), 
		 -> Conf2_ChannelB_STR(15), STR_195(28), STR_126(13), STR_109(35), 
		 -> STR_107(38), STR_98(24), STR_95(60), STR_90(32), 
		 -> STR_78(14), STR_70(34), STR_69(35), SYNTAX_ERR(14), 
		 -> Conf1_ChannelF_STR(15), Conf1_ChannelE_STR(15), Conf1_ChannelD_STR(15), STR_23(6), 
		 -> STR_20(5), STR_17(3), STR_16(6), STR_15(9), 
		 -> STR_14(20), STR_13(9), STR_8(3), STR_6(4), 
		 -> CRLN(3), 
 Auto vars:     Size  Location     Type
		None
 Return value:  Size  Location     Type
		None               void
 Registers used:
		wreg, status,2, status,0, tblptrl, tblptrh, tblptru, cstack
 Tracked objects:
		On entry : 
		On exit  : 
		Unchanged: 
 Data sizes:     COMRAM   BANK0   BANK1   BANK2   BANK3   BANK4   BANK5   BANK6   BANK7   BANK8   BANK9  BANK10  BANK11  BANK12  BANK13  BANK14  BANK15
      Params:         0       2       0       0       0       0       0       0       0       0       0       0       0       0       0       0       0
      Locals:         0       0       0       0       0       0       0       0       0       0       0       0       0       0       0       0       0
      Temps:          0       0       0       0       0       0       0       0       0       0       0       0       0       0       0       0       0
      Totals:         0       2       0       0       0       0       0       0       0       0       0       0       0       0       0       0       0
Total ram usage:        2 bytes
 Hardware stack levels used:    1
 Hardware stack levels required when called:    8
 This function calls:
		_UARTchar_CONST
 This function is called by:
		_main
		_UARTstringCRLN
		_UARTstringCRLN_CONST
		_UARTcommandMenu
		_EnterCommandMode
		_BluetoothInitialSetup
		_UseBluetooth
		_WaitForIRsignal
		_DisplayRF_Channel
 This function uses a non-reentrant model


 *************** function _UARTchar_CONST *****************
 Defined at:
		line 212 in file "UART.c"
 Parameters:    Size  Location     Type
  data            1    wreg     const unsigned char 
 Auto vars:     Size  Location     Type
  data            1   12[BANK0 ] const unsigned char 
  temp            1   13[BANK0 ] unsigned char 
 Return value:  Size  Location     Type
		None               void
 Registers used:
		wreg, status,2, status,0, cstack
 Tracked objects:
		On entry : 
		On exit  : 
		Unchanged: 
 Data sizes:     COMRAM   BANK0   BANK1   BANK2   BANK3   BANK4   BANK5   BANK6   BANK7   BANK8   BANK9  BANK10  BANK11  BANK12  BANK13  BANK14  BANK15
      Params:         0       0       0       0       0       0       0       0       0       0       0       0       0       0       0       0       0
      Locals:         0       2       0       0       0       0       0       0       0       0       0       0       0       0       0       0       0
      Temps:          0       0       0       0       0       0       0       0       0       0       0       0       0       0       0       0       0
      Totals:         0       2       0       0       0       0       0       0       0       0       0       0       0       0       0       0       0
Total ram usage:        2 bytes
 Hardware stack levels used:    1
 Hardware stack levels required when called:    7
 This function calls:
		_delayUS
 This function is called by:
		_main
		_UARTstring_CONST
		_UARTstringCRLN_CONST
		_UseBluetooth
		_WaitForIRsignal
 This function uses a non-reentrant model


 *************** function _StringContains *****************
 Defined at:
		line 302 in file "MISC.c"
 Parameters:    Size  Location     Type
  This            2    3[BANK0 ] PTR const unsigned char 
		 -> CommandString(100), main@BluetoothString(100), 
  That            2    5[BANK0 ] PTR const unsigned char 
		 -> STR_39(2), BluetoothInitialSetup@buf(50), EnterCommandMode@buf(50), 
 Auto vars:     Size  Location     Type
  i               1   11[BANK0 ] unsigned char 
  MatchCount      1   10[BANK0 ] unsigned char 
  MatchAmount     1    9[BANK0 ] unsigned char 
 Return value:  Size  Location     Type
                  1    wreg      unsigned char 
 Registers used:
		wreg, fsr0l, fsr0h, fsr2l, fsr2h, status,2, status,0, tblptrl, tblptrh, tblptru, prodl, prodh
 Tracked objects:
		On entry : 
		On exit  : 
		Unchanged: 
 Data sizes:     COMRAM   BANK0   BANK1   BANK2   BANK3   BANK4   BANK5   BANK6   BANK7   BANK8   BANK9  BANK10  BANK11  BANK12  BANK13  BANK14  BANK15
      Params:         0       4       0       0       0       0       0       0       0       0       0       0       0       0       0       0       0
      Locals:         0       3       0       0       0       0       0       0       0       0       0       0       0       0       0       0       0
      Temps:          0       2       0       0       0       0       0       0       0       0       0       0       0       0       0       0       0
      Totals:         0       9       0       0       0       0       0       0       0       0       0       0       0       0       0       0       0
Total ram usage:        9 bytes
 Hardware stack levels used:    1
 Hardware stack levels required when called:    6
 This function calls:
		Nothing
 This function is called by:
		_EnterCommandMode
		_BluetoothInitialSetup
		_UseBluetooth
 This function uses a non-reentrant model


 *************** function _ResetBlue *****************
 Defined at:
		line 122 in file "Bluetooth.c"
 Parameters:    Size  Location     Type
		None
 Auto vars:     Size  Location     Type
		None
 Return value:  Size  Location     Type
		None               void
 Registers used:
		wreg, status,2, status,0, cstack
 Tracked objects:
		On entry : 
		On exit  : 
		Unchanged: 
 Data sizes:     COMRAM   BANK0   BANK1   BANK2   BANK3   BANK4   BANK5   BANK6   BANK7   BANK8   BANK9  BANK10  BANK11  BANK12  BANK13  BANK14  BANK15
      Params:         0       0       0       0       0       0       0       0       0       0       0       0       0       0       0       0       0
      Locals:         0       0       0       0       0       0       0       0       0       0       0       0       0       0       0       0       0
      Temps:          0       0       0       0       0       0       0       0       0       0       0       0       0       0       0       0       0
      Totals:         0       0       0       0       0       0       0       0       0       0       0       0       0       0       0       0       0
Total ram usage:        0 bytes
 Hardware stack levels used:    1
 Hardware stack levels required when called:    7
 This function calls:
		_delayUS
 This function is called by:
		_InitBluetooth
		_EnterCommandMode
 This function uses a non-reentrant model


 *************** function _delayUS *****************
 Defined at:
		line 53 in file "MISC.c"
 Parameters:    Size  Location     Type
  US              4    3[BANK0 ] long 
 Auto vars:     Size  Location     Type
  i               4    8[BANK0 ] long 
 Return value:  Size  Location     Type
		None               void
 Registers used:
		wreg, status,2, status,0
 Tracked objects:
		On entry : 
		On exit  : 
		Unchanged: 
 Data sizes:     COMRAM   BANK0   BANK1   BANK2   BANK3   BANK4   BANK5   BANK6   BANK7   BANK8   BANK9  BANK10  BANK11  BANK12  BANK13  BANK14  BANK15
      Params:         0       4       0       0       0       0       0       0       0       0       0       0       0       0       0       0       0
      Locals:         0       4       0       0       0       0       0       0       0       0       0       0       0       0       0       0       0
      Temps:          0       1       0       0       0       0       0       0       0       0       0       0       0       0       0       0       0
      Totals:         0       9       0       0       0       0       0       0       0       0       0       0       0       0       0       0       0
Total ram usage:        9 bytes
 Hardware stack levels used:    1
 Hardware stack levels required when called:    6
 This function calls:
		Nothing
 This function is called by:
		_main
		_UARTchar
		_UARTchar_CONST
		_InternalADC_Read
		_UseIRCode
		_SendNEC_wait
		_ReadCodeButtons
		_ResetBlue
		_EnterCommandMode
		_BluetoothInitialSetup
		_UseBluetooth
		_WaitForIRsignal
		_CalibrateDelay
 This function uses a non-reentrant model


 *************** function _ClearUSART *****************
 Defined at:
		line 259 in file "UART.c"
 Parameters:    Size  Location     Type
		None
 Auto vars:     Size  Location     Type
		None
 Return value:  Size  Location     Type
		None               void
 Registers used:
		wreg, status,2, cstack
 Tracked objects:
		On entry : 
		On exit  : 
		Unchanged: 
 Data sizes:     COMRAM   BANK0   BANK1   BANK2   BANK3   BANK4   BANK5   BANK6   BANK7   BANK8   BANK9  BANK10  BANK11  BANK12  BANK13  BANK14  BANK15
      Params:         0       0       0       0       0       0       0       0       0       0       0       0       0       0       0       0       0
      Locals:         0       0       0       0       0       0       0       0       0       0       0       0       0       0       0       0       0
      Temps:          0       0       0       0       0       0       0       0       0       0       0       0       0       0       0       0       0
      Totals:         0       0       0       0       0       0       0       0       0       0       0       0       0       0       0       0       0
Total ram usage:        0 bytes
 Hardware stack levels used:    1
 Hardware stack levels required when called:    7
 This function calls:
		_ReadUSART
 This function is called by:
		_main
		_InitUART
		_InitBluetooth
		_EnterCommandMode
		_BluetoothInitialSetup
		_UseBluetooth
 This function uses a non-reentrant model


 *************** function _ReadUSART *****************
 Defined at:
		line 272 in file "UART.c"
 Parameters:    Size  Location     Type
		None
 Auto vars:     Size  Location     Type
  data            1    3[BANK0 ] unsigned char 
 Return value:  Size  Location     Type
                  1    wreg      unsigned char 
 Registers used:
		wreg, status,2
 Tracked objects:
		On entry : 
		On exit  : 
		Unchanged: 
 Data sizes:     COMRAM   BANK0   BANK1   BANK2   BANK3   BANK4   BANK5   BANK6   BANK7   BANK8   BANK9  BANK10  BANK11  BANK12  BANK13  BANK14  BANK15
      Params:         0       0       0       0       0       0       0       0       0       0       0       0       0       0       0       0       0
      Locals:         0       1       0       0       0       0       0       0       0       0       0       0       0       0       0       0       0
      Temps:          0       0       0       0       0       0       0       0       0       0       0       0       0       0       0       0       0
      Totals:         0       1       0       0       0       0       0       0       0       0       0       0       0       0       0       0       0
Total ram usage:        1 bytes
 Hardware stack levels used:    1
 Hardware stack levels required when called:    6
 This function calls:
		Nothing
 This function is called by:
		_ClearUSART
 This function uses a non-reentrant model


 *************** function _BlueConnected *****************
 Defined at:
		line 107 in file "Bluetooth.c"
 Parameters:    Size  Location     Type
		None
 Auto vars:     Size  Location     Type
		None
 Return value:  Size  Location     Type
                  1    wreg      unsigned char 
 Registers used:
		wreg
 Tracked objects:
		On entry : 
		On exit  : 
		Unchanged: 
 Data sizes:     COMRAM   BANK0   BANK1   BANK2   BANK3   BANK4   BANK5   BANK6   BANK7   BANK8   BANK9  BANK10  BANK11  BANK12  BANK13  BANK14  BANK15
      Params:         0       0       0       0       0       0       0       0       0       0       0       0       0       0       0       0       0
      Locals:         0       0       0       0       0       0       0       0       0       0       0       0       0       0       0       0       0
      Temps:          0       0       0       0       0       0       0       0       0       0       0       0       0       0       0       0       0
      Totals:         0       0       0       0       0       0       0       0       0       0       0       0       0       0       0       0       0
Total ram usage:        0 bytes
 Hardware stack levels used:    1
 Hardware stack levels required when called:    6
 This function calls:
		Nothing
 This function is called by:
		_main
		_EnterCommandMode
 This function uses a non-reentrant model


 *************** function _BufferCopy *****************
 Defined at:
		line 217 in file "MISC.c"
 Parameters:    Size  Location     Type
  from            2   11[BANK0 ] PTR unsigned char 
		 -> BluetoothInitialSetup@BluetoothVersionLine2(30), BluetoothInitialSetup@BluetoothVersionLine1(30), StringAddEqual@temp(255), Init_System@buf(50), 
		 -> BluetoothBroadcast(21), ReceivedString(100), 
  to              2   13[BANK0 ] PTR unsigned char 
		 -> BluetoothInitialSetup@BroadcastTEMP(21), BluetoothFirmware2(30), BluetoothFirmware1(30), BluetoothBroadcast(21), 
		 -> ReceivedString(100), main@BroadcastTEMP(21), main@BluetoothString(100), 
  count           1   15[BANK0 ] unsigned char 
  shift           1   16[BANK0 ] unsigned char 
 Auto vars:     Size  Location     Type
  i               1   17[BANK0 ] unsigned char 
 Return value:  Size  Location     Type
		None               void
 Registers used:
		wreg, fsr1l, fsr1h, fsr2l, fsr2h, status,2, status,0, prodl, prodh, cstack
 Tracked objects:
		On entry : 
		On exit  : 
		Unchanged: 
 Data sizes:     COMRAM   BANK0   BANK1   BANK2   BANK3   BANK4   BANK5   BANK6   BANK7   BANK8   BANK9  BANK10  BANK11  BANK12  BANK13  BANK14  BANK15
      Params:         0       6       0       0       0       0       0       0       0       0       0       0       0       0       0       0       0
      Locals:         0       1       0       0       0       0       0       0       0       0       0       0       0       0       0       0       0
      Temps:          0       0       0       0       0       0       0       0       0       0       0       0       0       0       0       0       0
      Totals:         0       7       0       0       0       0       0       0       0       0       0       0       0       0       0       0       0
Total ram usage:        7 bytes
 Hardware stack levels used:    1
 Hardware stack levels required when called:    7
 This function calls:
		_cleanBuffer
 This function is called by:
		_main
		_Init_System
		_StringAddEqual
		_BluetoothInitialSetup
		_UseBluetooth
 This function uses a non-reentrant model


 *************** function _cleanBuffer *****************
 Defined at:
		line 177 in file "MISC.c"
 Parameters:    Size  Location     Type
  data            2    3[BANK0 ] PTR unsigned char 
		 -> UseBluetooth@rfchannelSTR(10), UseBluetooth@buf(100), BluetoothInitialSetup@BluetoothVersionLine2(30), BluetoothInitialSetup@BluetoothVersionLine1(30), 
		 -> BluetoothInitialSetup@BroadcastTEMP(21), BluetoothInitialSetup@buf(50), CommandString(100), StringAddEqual@temp(255), 
		 -> BluetoothFirmware2(30), BluetoothFirmware1(30), BluetoothBroadcast(21), ReceivedString(100), 
		 -> main@BroadcastTEMP(21), main@BluetoothString(100), main@buf(100), 
  count           2    5[BANK0 ] int 
 Auto vars:     Size  Location     Type
  i               1   10[BANK0 ] unsigned char 
 Return value:  Size  Location     Type
		None               void
 Registers used:
		wreg, fsr2l, fsr2h, status,2, status,0, prodl, prodh
 Tracked objects:
		On entry : 
		On exit  : 
		Unchanged: 
 Data sizes:     COMRAM   BANK0   BANK1   BANK2   BANK3   BANK4   BANK5   BANK6   BANK7   BANK8   BANK9  BANK10  BANK11  BANK12  BANK13  BANK14  BANK15
      Params:         0       4       0       0       0       0       0       0       0       0       0       0       0       0       0       0       0
      Locals:         0       1       0       0       0       0       0       0       0       0       0       0       0       0       0       0       0
      Temps:          0       3       0       0       0       0       0       0       0       0       0       0       0       0       0       0       0
      Totals:         0       8       0       0       0       0       0       0       0       0       0       0       0       0       0       0       0
Total ram usage:        8 bytes
 Hardware stack levels used:    1
 Hardware stack levels required when called:    6
 This function calls:
		Nothing
 This function is called by:
		_main
		_Init_System
		_BufferCopy
		_StringAddEqual
		_InitBluetooth
		_EnterCommandMode
		_BluetoothInitialSetup
		_UseBluetooth
 This function uses a non-reentrant model


 *************** function _BluetoothConfigured *****************
 Defined at:
		line 431 in file "Bluetooth.c"
 Parameters:    Size  Location     Type
		None
 Auto vars:     Size  Location     Type
		None
 Return value:  Size  Location     Type
                  1    wreg      unsigned char 
 Registers used:
		wreg, status,2, status,0
 Tracked objects:
		On entry : 
		On exit  : 
		Unchanged: 
 Data sizes:     COMRAM   BANK0   BANK1   BANK2   BANK3   BANK4   BANK5   BANK6   BANK7   BANK8   BANK9  BANK10  BANK11  BANK12  BANK13  BANK14  BANK15
      Params:         0       0       0       0       0       0       0       0       0       0       0       0       0       0       0       0       0
      Locals:         0       0       0       0       0       0       0       0       0       0       0       0       0       0       0       0       0
      Temps:          0       0       0       0       0       0       0       0       0       0       0       0       0       0       0       0       0
      Totals:         0       0       0       0       0       0       0       0       0       0       0       0       0       0       0       0       0
Total ram usage:        0 bytes
 Hardware stack levels used:    1
 Hardware stack levels required when called:    6
 This function calls:
		Nothing
 This function is called by:
		_InitBluetooth
 This function uses a non-reentrant model


 *************** function _InitADC *****************
 Defined at:
		line 137 in file "ADC.c"
 Parameters:    Size  Location     Type
		None
 Auto vars:     Size  Location     Type
		None
 Return value:  Size  Location     Type
		None               void
 Registers used:
		wreg, status,2, cstack
 Tracked objects:
		On entry : 
		On exit  : 
		Unchanged: 
 Data sizes:     COMRAM   BANK0   BANK1   BANK2   BANK3   BANK4   BANK5   BANK6   BANK7   BANK8   BANK9  BANK10  BANK11  BANK12  BANK13  BANK14  BANK15
      Params:         0       0       0       0       0       0       0       0       0       0       0       0       0       0       0       0       0
      Locals:         0       0       0       0       0       0       0       0       0       0       0       0       0       0       0       0       0
      Temps:          0       0       0       0       0       0       0       0       0       0       0       0       0       0       0       0       0
      Totals:         0       0       0       0       0       0       0       0       0       0       0       0       0       0       0       0       0
Total ram usage:        0 bytes
 Hardware stack levels used:    1
 Hardware stack levels required when called:    7
 This function calls:
		_ResetADC
 This function is called by:
		_Init_System
 This function uses a non-reentrant model


 *************** function _ResetADC *****************
 Defined at:
		line 125 in file "ADC.c"
 Parameters:    Size  Location     Type
		None
 Auto vars:     Size  Location     Type
		None
 Return value:  Size  Location     Type
		None               void
 Registers used:
		wreg, status,2
 Tracked objects:
		On entry : 
		On exit  : 
		Unchanged: 
 Data sizes:     COMRAM   BANK0   BANK1   BANK2   BANK3   BANK4   BANK5   BANK6   BANK7   BANK8   BANK9  BANK10  BANK11  BANK12  BANK13  BANK14  BANK15
      Params:         0       0       0       0       0       0       0       0       0       0       0       0       0       0       0       0       0
      Locals:         0       0       0       0       0       0       0       0       0       0       0       0       0       0       0       0       0
      Temps:          0       0       0       0       0       0       0       0       0       0       0       0       0       0       0       0       0
      Totals:         0       0       0       0       0       0       0       0       0       0       0       0       0       0       0       0       0
Total ram usage:        0 bytes
 Hardware stack levels used:    1
 Hardware stack levels required when called:    6
 This function calls:
		Nothing
 This function is called by:
		_InitADC
 This function uses a non-reentrant model


 *************** function _EEPROMinitialized *****************
 Defined at:
		line 332 in file "EEPROM.c"
 Parameters:    Size  Location     Type
		None
 Auto vars:     Size  Location     Type
		None
 Return value:  Size  Location     Type
                  1    wreg      unsigned char 
 Registers used:
		wreg, status,2, status,0
 Tracked objects:
		On entry : 
		On exit  : 
		Unchanged: 
 Data sizes:     COMRAM   BANK0   BANK1   BANK2   BANK3   BANK4   BANK5   BANK6   BANK7   BANK8   BANK9  BANK10  BANK11  BANK12  BANK13  BANK14  BANK15
      Params:         0       0       0       0       0       0       0       0       0       0       0       0       0       0       0       0       0
      Locals:         0       0       0       0       0       0       0       0       0       0       0       0       0       0       0       0       0
      Temps:          0       0       0       0       0       0       0       0       0       0       0       0       0       0       0       0       0
      Totals:         0       0       0       0       0       0       0       0       0       0       0       0       0       0       0       0       0
Total ram usage:        0 bytes
 Hardware stack levels used:    1
 Hardware stack levels required when called:    6
 This function calls:
		Nothing
 This function is called by:
		_Init_System
 This function uses a non-reentrant model


 *************** function _InitApp *****************
 Defined at:
		line 64 in file "user.c"
 Parameters:    Size  Location     Type
		None
 Auto vars:     Size  Location     Type
		None
 Return value:  Size  Location     Type
		None               void
 Registers used:
		wreg, status,2, status,0
 Tracked objects:
		On entry : 
		On exit  : 
		Unchanged: 
 Data sizes:     COMRAM   BANK0   BANK1   BANK2   BANK3   BANK4   BANK5   BANK6   BANK7   BANK8   BANK9  BANK10  BANK11  BANK12  BANK13  BANK14  BANK15
      Params:         0       0       0       0       0       0       0       0       0       0       0       0       0       0       0       0       0
      Locals:         0       0       0       0       0       0       0       0       0       0       0       0       0       0       0       0       0
      Temps:          0       0       0       0       0       0       0       0       0       0       0       0       0       0       0       0       0
      Totals:         0       0       0       0       0       0       0       0       0       0       0       0       0       0       0       0       0
Total ram usage:        0 bytes
 Hardware stack levels used:    1
 Hardware stack levels required when called:    6
 This function calls:
		Nothing
 This function is called by:
		_main
 This function uses a non-reentrant model


 *************** function _ConfigureOscillator *****************
 Defined at:
		line 43 in file "system.c"
 Parameters:    Size  Location     Type
		None
 Auto vars:     Size  Location     Type
		None
 Return value:  Size  Location     Type
		None               void
 Registers used:
		None
 Tracked objects:
		On entry : 
		On exit  : 
		Unchanged: 
 Data sizes:     COMRAM   BANK0   BANK1   BANK2   BANK3   BANK4   BANK5   BANK6   BANK7   BANK8   BANK9  BANK10  BANK11  BANK12  BANK13  BANK14  BANK15
      Params:         0       0       0       0       0       0       0       0       0       0       0       0       0       0       0       0       0
      Locals:         0       0       0       0       0       0       0       0       0       0       0       0       0       0       0       0       0
      Temps:          0       0       0       0       0       0       0       0       0       0       0       0       0       0       0       0       0
      Totals:         0       0       0       0       0       0       0       0       0       0       0       0       0       0       0       0       0
Total ram usage:        0 bytes
 Hardware stack levels used:    1
 Hardware stack levels required when called:    6
 This function calls:
		Nothing
 This function is called by:
		_main
 This function uses a non-reentrant model


 *************** function _low_isr *****************
 Defined at:
		line 607 in file "interrupts.c"
 Parameters:    Size  Location     Type
		None
 Auto vars:     Size  Location     Type
  data            1   30[COMRAM] unsigned char 
 Return value:  Size  Location     Type
		None               void
 Registers used:
		wreg, fsr2l, fsr2h, status,2, status,0, tblptrl, tblptrh, tblptru, prodl, prodh, cstack
 Tracked objects:
		On entry : 
		On exit  : 
		Unchanged: 
 Data sizes:     COMRAM   BANK0   BANK1   BANK2   BANK3   BANK4   BANK5   BANK6   BANK7   BANK8   BANK9  BANK10  BANK11  BANK12  BANK13  BANK14  BANK15
      Params:         0       0       0       0       0       0       0       0       0       0       0       0       0       0       0       0       0
      Locals:         1       0       0       0       0       0       0       0       0       0       0       0       0       0       0       0       0
      Temps:         17       0       0       0       0       0       0       0       0       0       0       0       0       0       0       0       0
      Totals:        18       0       0       0       0       0       0       0       0       0       0       0       0       0       0       0       0
Total ram usage:       18 bytes
 Hardware stack levels used:    1
 Hardware stack levels required when called:    5
 This function calls:
		_EraseScreen
		_IsCharacter
		i1_BlueConnected
		i1_ReadUSART
		i1_UARTchar
		i1_UARTchar_CONST
		i1_UARTstring
		i1_UARTstring_CONST
 This function is called by:
		Interrupt level 1
 This function uses a non-reentrant model


 *************** function i1_UARTstring_CONST *****************
 Defined at:
		line 245 in file "UART.c"
 Parameters:    Size  Location     Type
  data            2   11[COMRAM] PTR const unsigned char 
		 -> Conf2_ChannelH_3_STR(17), Conf2_ChannelH_2_STR(17), Conf2_ChannelH_1_STR(17), Conf2_ChannelD_STR(15), 
		 -> Conf2_ChannelB_STR(15), STR_195(28), STR_126(13), STR_109(35), 
		 -> STR_107(38), STR_98(24), STR_95(60), STR_90(32), 
		 -> STR_78(14), STR_70(34), STR_69(35), SYNTAX_ERR(14), 
		 -> Conf1_ChannelF_STR(15), Conf1_ChannelE_STR(15), Conf1_ChannelD_STR(15), STR_23(6), 
		 -> STR_20(5), STR_17(3), STR_16(6), STR_15(9), 
		 -> STR_14(20), STR_13(9), STR_8(3), STR_6(4), 
		 -> CRLN(3), 
 Auto vars:     Size  Location     Type
		None
 Return value:  Size  Location     Type
		None               void
 Registers used:
		wreg, status,2, status,0, tblptrl, tblptrh, tblptru, cstack
 Tracked objects:
		On entry : 
		On exit  : 
		Unchanged: 
 Data sizes:     COMRAM   BANK0   BANK1   BANK2   BANK3   BANK4   BANK5   BANK6   BANK7   BANK8   BANK9  BANK10  BANK11  BANK12  BANK13  BANK14  BANK15
      Params:         2       0       0       0       0       0       0       0       0       0       0       0       0       0       0       0       0
      Locals:         0       0       0       0       0       0       0       0       0       0       0       0       0       0       0       0       0
      Temps:          0       0       0       0       0       0       0       0       0       0       0       0       0       0       0       0       0
      Totals:         2       0       0       0       0       0       0       0       0       0       0       0       0       0       0       0       0
Total ram usage:        2 bytes
 Hardware stack levels used:    1
 Hardware stack levels required when called:    4
 This function calls:
		i1_UARTchar_CONST
 This function is called by:
		_low_isr
 This function uses a non-reentrant model


 *************** function i1_UARTchar_CONST *****************
 Defined at:
		line 212 in file "UART.c"
 Parameters:    Size  Location     Type
  data            1    wreg     const unsigned char 
 Auto vars:     Size  Location     Type
  data            1    9[COMRAM] const unsigned char 
  UARTchar_CON    1   10[COMRAM] unsigned char 
 Return value:  Size  Location     Type
		None               void
 Registers used:
		wreg, status,2, status,0, cstack
 Tracked objects:
		On entry : 
		On exit  : 
		Unchanged: 
 Data sizes:     COMRAM   BANK0   BANK1   BANK2   BANK3   BANK4   BANK5   BANK6   BANK7   BANK8   BANK9  BANK10  BANK11  BANK12  BANK13  BANK14  BANK15
      Params:         0       0       0       0       0       0       0       0       0       0       0       0       0       0       0       0       0
      Locals:         2       0       0       0       0       0       0       0       0       0       0       0       0       0       0       0       0
      Temps:          0       0       0       0       0       0       0       0       0       0       0       0       0       0       0       0       0
      Totals:         2       0       0       0       0       0       0       0       0       0       0       0       0       0       0       0       0
Total ram usage:        2 bytes
 Hardware stack levels used:    1
 Hardware stack levels required when called:    3
 This function calls:
		i1_delayUS
 This function is called by:
		_low_isr
		i1_UARTstring_CONST
 This function uses a non-reentrant model


 *************** function i1_UARTstring *****************
 Defined at:
		line 231 in file "UART.c"
 Parameters:    Size  Location     Type
  data            2   10[COMRAM] PTR unsigned char 
		 -> UseBluetooth@buf(100), BluetoothInitialSetup@buf(50), ReceivedString(100), 
 Auto vars:     Size  Location     Type
		None
 Return value:  Size  Location     Type
		None               void
 Registers used:
		wreg, fsr2l, fsr2h, status,2, status,0, cstack
 Tracked objects:
		On entry : 
		On exit  : 
		Unchanged: 
 Data sizes:     COMRAM   BANK0   BANK1   BANK2   BANK3   BANK4   BANK5   BANK6   BANK7   BANK8   BANK9  BANK10  BANK11  BANK12  BANK13  BANK14  BANK15
      Params:         2       0       0       0       0       0       0       0       0       0       0       0       0       0       0       0       0
      Locals:         0       0       0       0       0       0       0       0       0       0       0       0       0       0       0       0       0
      Temps:          0       0       0       0       0       0       0       0       0       0       0       0       0       0       0       0       0
      Totals:         2       0       0       0       0       0       0       0       0       0       0       0       0       0       0       0       0
Total ram usage:        2 bytes
 Hardware stack levels used:    1
 Hardware stack levels required when called:    4
 This function calls:
		i1_UARTchar
 This function is called by:
		_low_isr
 This function uses a non-reentrant model


 *************** function i1_ReadUSART *****************
 Defined at:
		line 272 in file "UART.c"
 Parameters:    Size  Location     Type
		None
 Auto vars:     Size  Location     Type
  ReadUSART       1    0[COMRAM] unsigned char 
 Return value:  Size  Location     Type
                  1    wreg      unsigned char 
 Registers used:
		wreg, status,2
 Tracked objects:
		On entry : 
		On exit  : 
		Unchanged: 
 Data sizes:     COMRAM   BANK0   BANK1   BANK2   BANK3   BANK4   BANK5   BANK6   BANK7   BANK8   BANK9  BANK10  BANK11  BANK12  BANK13  BANK14  BANK15
      Params:         0       0       0       0       0       0       0       0       0       0       0       0       0       0       0       0       0
      Locals:         1       0       0       0       0       0       0       0       0       0       0       0       0       0       0       0       0
      Temps:          0       0       0       0       0       0       0       0       0       0       0       0       0       0       0       0       0
      Totals:         1       0       0       0       0       0       0       0       0       0       0       0       0       0       0       0       0
Total ram usage:        1 bytes
 Hardware stack levels used:    1
 Hardware stack levels required when called:    2
 This function calls:
		Nothing
 This function is called by:
		_low_isr
 This function uses a non-reentrant model


 *************** function i1_BlueConnected *****************
 Defined at:
		line 107 in file "Bluetooth.c"
 Parameters:    Size  Location     Type
		None
 Auto vars:     Size  Location     Type
		None
 Return value:  Size  Location     Type
                  1    wreg      unsigned char 
 Registers used:
		wreg
 Tracked objects:
		On entry : 
		On exit  : 
		Unchanged: 
 Data sizes:     COMRAM   BANK0   BANK1   BANK2   BANK3   BANK4   BANK5   BANK6   BANK7   BANK8   BANK9  BANK10  BANK11  BANK12  BANK13  BANK14  BANK15
      Params:         0       0       0       0       0       0       0       0       0       0       0       0       0       0       0       0       0
      Locals:         0       0       0       0       0       0       0       0       0       0       0       0       0       0       0       0       0
      Temps:          0       0       0       0       0       0       0       0       0       0       0       0       0       0       0       0       0
      Totals:         0       0       0       0       0       0       0       0       0       0       0       0       0       0       0       0       0
Total ram usage:        0 bytes
 Hardware stack levels used:    1
 Hardware stack levels required when called:    2
 This function calls:
		Nothing
 This function is called by:
		_low_isr
 This function uses a non-reentrant model


 *************** function _IsCharacter *****************
 Defined at:
		line 129 in file "MISC.c"
 Parameters:    Size  Location     Type
  data            1    wreg     unsigned char 
 Auto vars:     Size  Location     Type
  data            1    0[COMRAM] unsigned char 
 Return value:  Size  Location     Type
                  1    wreg      unsigned char 
 Registers used:
		wreg, status,2, status,0
 Tracked objects:
		On entry : 
		On exit  : 
		Unchanged: 
 Data sizes:     COMRAM   BANK0   BANK1   BANK2   BANK3   BANK4   BANK5   BANK6   BANK7   BANK8   BANK9  BANK10  BANK11  BANK12  BANK13  BANK14  BANK15
      Params:         0       0       0       0       0       0       0       0       0       0       0       0       0       0       0       0       0
      Locals:         1       0       0       0       0       0       0       0       0       0       0       0       0       0       0       0       0
      Temps:          0       0       0       0       0       0       0       0       0       0       0       0       0       0       0       0       0
      Totals:         1       0       0       0       0       0       0       0       0       0       0       0       0       0       0       0       0
Total ram usage:        1 bytes
 Hardware stack levels used:    1
 Hardware stack levels required when called:    2
 This function calls:
		Nothing
 This function is called by:
		_low_isr
 This function uses a non-reentrant model


 *************** function _EraseScreen *****************
 Defined at:
		line 370 in file "UART.c"
 Parameters:    Size  Location     Type
  characters      1    wreg     unsigned char 
 Auto vars:     Size  Location     Type
  characters      1   10[COMRAM] unsigned char 
  i               1   11[COMRAM] unsigned char 
 Return value:  Size  Location     Type
		None               void
 Registers used:
		wreg, status,2, status,0, cstack
 Tracked objects:
		On entry : 
		On exit  : 
		Unchanged: 
 Data sizes:     COMRAM   BANK0   BANK1   BANK2   BANK3   BANK4   BANK5   BANK6   BANK7   BANK8   BANK9  BANK10  BANK11  BANK12  BANK13  BANK14  BANK15
      Params:         0       0       0       0       0       0       0       0       0       0       0       0       0       0       0       0       0
      Locals:         2       0       0       0       0       0       0       0       0       0       0       0       0       0       0       0       0
      Temps:          0       0       0       0       0       0       0       0       0       0       0       0       0       0       0       0       0
      Totals:         2       0       0       0       0       0       0       0       0       0       0       0       0       0       0       0       0
Total ram usage:        2 bytes
 Hardware stack levels used:    1
 Hardware stack levels required when called:    4
 This function calls:
		i1_UARTchar
 This function is called by:
		_low_isr
 This function uses a non-reentrant model


 *************** function i1_UARTchar *****************
 Defined at:
		line 194 in file "UART.c"
 Parameters:    Size  Location     Type
  data            1    wreg     unsigned char 
 Auto vars:     Size  Location     Type
  data            1    9[COMRAM] unsigned char 
 Return value:  Size  Location     Type
		None               void
 Registers used:
		wreg, status,2, status,0, cstack
 Tracked objects:
		On entry : 
		On exit  : 
		Unchanged: 
 Data sizes:     COMRAM   BANK0   BANK1   BANK2   BANK3   BANK4   BANK5   BANK6   BANK7   BANK8   BANK9  BANK10  BANK11  BANK12  BANK13  BANK14  BANK15
      Params:         0       0       0       0       0       0       0       0       0       0       0       0       0       0       0       0       0
      Locals:         1       0       0       0       0       0       0       0       0       0       0       0       0       0       0       0       0
      Temps:          0       0       0       0       0       0       0       0       0       0       0       0       0       0       0       0       0
      Totals:         1       0       0       0       0       0       0       0       0       0       0       0       0       0       0       0       0
Total ram usage:        1 bytes
 Hardware stack levels used:    1
 Hardware stack levels required when called:    3
 This function calls:
		i1_delayUS
 This function is called by:
		_EraseScreen
		_low_isr
		i1_UARTstring
 This function uses a non-reentrant model


 *************** function i1_delayUS *****************
 Defined at:
		line 53 in file "MISC.c"
 Parameters:    Size  Location     Type
  US              4    0[COMRAM] long 
 Auto vars:     Size  Location     Type
  delayUS         4    5[COMRAM] long 
 Return value:  Size  Location     Type
		None               void
 Registers used:
		wreg, status,2, status,0
 Tracked objects:
		On entry : 
		On exit  : 
		Unchanged: 
 Data sizes:     COMRAM   BANK0   BANK1   BANK2   BANK3   BANK4   BANK5   BANK6   BANK7   BANK8   BANK9  BANK10  BANK11  BANK12  BANK13  BANK14  BANK15
      Params:         4       0       0       0       0       0       0       0       0       0       0       0       0       0       0       0       0
      Locals:         4       0       0       0       0       0       0       0       0       0       0       0       0       0       0       0       0
      Temps:          1       0       0       0       0       0       0       0       0       0       0       0       0       0       0       0       0
      Totals:         9       0       0       0       0       0       0       0       0       0       0       0       0       0       0       0       0
Total ram usage:        9 bytes
 Hardware stack levels used:    1
 Hardware stack levels required when called:    2
 This function calls:
		Nothing
 This function is called by:
		i1_UARTchar
		i1_UARTchar_CONST
 This function uses a non-reentrant model


 *************** function _high_isr *****************
 Defined at:
		line 59 in file "interrupts.c"
 Parameters:    Size  Location     Type
		None
 Auto vars:     Size  Location     Type
  Time0           2    1[BANK0 ] unsigned int 
  IRpin           1    0[BANK0 ] unsigned char 
 Return value:  Size  Location     Type
		None               void
 Registers used:
		wreg, fsr2l, fsr2h, status,2, status,0, prodl, prodh, cstack
 Tracked objects:
		On entry : 
		On exit  : 
		Unchanged: 
 Data sizes:     COMRAM   BANK0   BANK1   BANK2   BANK3   BANK4   BANK5   BANK6   BANK7   BANK8   BANK9  BANK10  BANK11  BANK12  BANK13  BANK14  BANK15
      Params:         0       0       0       0       0       0       0       0       0       0       0       0       0       0       0       0       0
      Locals:         0       3       0       0       0       0       0       0       0       0       0       0       0       0       0       0       0
      Temps:         18       0       0       0       0       0       0       0       0       0       0       0       0       0       0       0       0
      Totals:        18       3       0       0       0       0       0       0       0       0       0       0       0       0       0       0       0
Total ram usage:       21 bytes
 Hardware stack levels used:    1
 Hardware stack levels required when called:    1
 This function calls:
		_IRrawToNEC
		_ResetTimer3
		_SetTimer0
		i2_ReadIRpin
		i2_ResetTimer0
		i2_cleanBuffer16bit
 This function is called by:
		Interrupt level 2
 This function uses a non-reentrant model


 *************** function i2_cleanBuffer16bit *****************
 Defined at:
		line 191 in file "MISC.c"
 Parameters:    Size  Location     Type
  data            2   31[COMRAM] PTR unsigned int 
		 -> IRRawCode(200), 
  count           2   33[COMRAM] int 
 Auto vars:     Size  Location     Type
  cleanBuffer1    1   38[COMRAM] unsigned char 
 Return value:  Size  Location     Type
		None               void
 Registers used:
		wreg, fsr2l, fsr2h, status,2, status,0, prodl, prodh
 Tracked objects:
		On entry : 
		On exit  : 
		Unchanged: 
 Data sizes:     COMRAM   BANK0   BANK1   BANK2   BANK3   BANK4   BANK5   BANK6   BANK7   BANK8   BANK9  BANK10  BANK11  BANK12  BANK13  BANK14  BANK15
      Params:         4       0       0       0       0       0       0       0       0       0       0       0       0       0       0       0       0
      Locals:         1       0       0       0       0       0       0       0       0       0       0       0       0       0       0       0       0
      Temps:          3       0       0       0       0       0       0       0       0       0       0       0       0       0       0       0       0
      Totals:         8       0       0       0       0       0       0       0       0       0       0       0       0       0       0       0       0
Total ram usage:        8 bytes
 Hardware stack levels used:    1
 This function calls:
		Nothing
 This function is called by:
		_high_isr
 This function uses a non-reentrant model


 *************** function i2_ResetTimer0 *****************
 Defined at:
		line 79 in file "Timer.c"
 Parameters:    Size  Location     Type
		None
 Auto vars:     Size  Location     Type
		None
 Return value:  Size  Location     Type
		None               void
 Registers used:
		wreg, status,2
 Tracked objects:
		On entry : 
		On exit  : 
		Unchanged: 
 Data sizes:     COMRAM   BANK0   BANK1   BANK2   BANK3   BANK4   BANK5   BANK6   BANK7   BANK8   BANK9  BANK10  BANK11  BANK12  BANK13  BANK14  BANK15
      Params:         0       0       0       0       0       0       0       0       0       0       0       0       0       0       0       0       0
      Locals:         0       0       0       0       0       0       0       0       0       0       0       0       0       0       0       0       0
      Temps:          0       0       0       0       0       0       0       0       0       0       0       0       0       0       0       0       0
      Totals:         0       0       0       0       0       0       0       0       0       0       0       0       0       0       0       0       0
Total ram usage:        0 bytes
 Hardware stack levels used:    1
 This function calls:
		Nothing
 This function is called by:
		_high_isr
 This function uses a non-reentrant model


 *************** function i2_ReadIRpin *****************
 Defined at:
		line 109 in file "IR.c"
 Parameters:    Size  Location     Type
		None
 Auto vars:     Size  Location     Type
		None
 Return value:  Size  Location     Type
                  1    wreg      unsigned char 
 Registers used:
		wreg
 Tracked objects:
		On entry : 
		On exit  : 
		Unchanged: 
 Data sizes:     COMRAM   BANK0   BANK1   BANK2   BANK3   BANK4   BANK5   BANK6   BANK7   BANK8   BANK9  BANK10  BANK11  BANK12  BANK13  BANK14  BANK15
      Params:         0       0       0       0       0       0       0       0       0       0       0       0       0       0       0       0       0
      Locals:         0       0       0       0       0       0       0       0       0       0       0       0       0       0       0       0       0
      Temps:          0       0       0       0       0       0       0       0       0       0       0       0       0       0       0       0       0
      Totals:         0       0       0       0       0       0       0       0       0       0       0       0       0       0       0       0       0
Total ram usage:        0 bytes
 Hardware stack levels used:    1
 This function calls:
		Nothing
 This function is called by:
		_high_isr
 This function uses a non-reentrant model


 *************** function _SetTimer0 *****************
 Defined at:
		line 94 in file "Timer.c"
 Parameters:    Size  Location     Type
  temp            2   31[COMRAM] unsigned int 
 Auto vars:     Size  Location     Type
		None
 Return value:  Size  Location     Type
		None               void
 Registers used:
		wreg, status,2
 Tracked objects:
		On entry : 
		On exit  : 
		Unchanged: 
 Data sizes:     COMRAM   BANK0   BANK1   BANK2   BANK3   BANK4   BANK5   BANK6   BANK7   BANK8   BANK9  BANK10  BANK11  BANK12  BANK13  BANK14  BANK15
      Params:         2       0       0       0       0       0       0       0       0       0       0       0       0       0       0       0       0
      Locals:         0       0       0       0       0       0       0       0       0       0       0       0       0       0       0       0       0
      Temps:          0       0       0       0       0       0       0       0       0       0       0       0       0       0       0       0       0
      Totals:         2       0       0       0       0       0       0       0       0       0       0       0       0       0       0       0       0
Total ram usage:        2 bytes
 Hardware stack levels used:    1
 This function calls:
		Nothing
 This function is called by:
		_high_isr
 This function uses a non-reentrant model


 *************** function _ResetTimer3 *****************
 Defined at:
		line 175 in file "Timer.c"
 Parameters:    Size  Location     Type
		None
 Auto vars:     Size  Location     Type
		None
 Return value:  Size  Location     Type
		None               void
 Registers used:
		wreg, status,2
 Tracked objects:
		On entry : 
		On exit  : 
		Unchanged: 
 Data sizes:     COMRAM   BANK0   BANK1   BANK2   BANK3   BANK4   BANK5   BANK6   BANK7   BANK8   BANK9  BANK10  BANK11  BANK12  BANK13  BANK14  BANK15
      Params:         0       0       0       0       0       0       0       0       0       0       0       0       0       0       0       0       0
      Locals:         0       0       0       0       0       0       0       0       0       0       0       0       0       0       0       0       0
      Temps:          0       0       0       0       0       0       0       0       0       0       0       0       0       0       0       0       0
      Totals:         0       0       0       0       0       0       0       0       0       0       0       0       0       0       0       0       0
Total ram usage:        0 bytes
 Hardware stack levels used:    1
 This function calls:
		Nothing
 This function is called by:
		_high_isr
 This function uses a non-reentrant model


 *************** function _IRrawToNEC *****************
 Defined at:
		line 127 in file "IR.c"
 Parameters:    Size  Location     Type
  Raw             2   31[COMRAM] PTR unsigned int 
		 -> IRRawCode(200), 
  NEC             2   33[COMRAM] PTR unsigned long 
		 -> IR_NEC(4), 
  Invert          1   35[COMRAM] unsigned char 
 Auto vars:     Size  Location     Type
  NECtemp         4   38[COMRAM] unsigned long 
  StartBit        1   44[COMRAM] unsigned char 
  i               1   43[COMRAM] unsigned char 
  first           1   42[COMRAM] unsigned char 
 Return value:  Size  Location     Type
                  1    wreg      unsigned char 
 Registers used:
		wreg, fsr2l, fsr2h, status,2, status,0, prodl, prodh
 Tracked objects:
		On entry : 
		On exit  : 
		Unchanged: 
 Data sizes:     COMRAM   BANK0   BANK1   BANK2   BANK3   BANK4   BANK5   BANK6   BANK7   BANK8   BANK9  BANK10  BANK11  BANK12  BANK13  BANK14  BANK15
      Params:         5       0       0       0       0       0       0       0       0       0       0       0       0       0       0       0       0
      Locals:         7       0       0       0       0       0       0       0       0       0       0       0       0       0       0       0       0
      Temps:          2       0       0       0       0       0       0       0       0       0       0       0       0       0       0       0       0
      Totals:        14       0       0       0       0       0       0       0       0       0       0       0       0       0       0       0       0
Total ram usage:       14 bytes
 Hardware stack levels used:    1
 This function calls:
		Nothing
 This function is called by:
		_high_isr
 This function uses a non-reentrant model



MODULE INFORMATION

Module		Function		Class		Link	Load	Size
C:\Program Files (x86)\Microchip\xc8\v1.34\sources\common\ftge.c
		___ftge        		CODE           	9DA6	0000	207

C:\Program Files (x86)\Microchip\xc8\v1.34\sources\common\ftge.c estimated size: 207

UART.c
		_OpenUSART     		CODE           	A896	0000	125
		_Local_CloseUSA		CODE           	B434	0000	15
		_InitUART      		CODE           	9566	0000	279
		_UARTstring_CON		CODE           	B0FE	0000	51
		_UARTstring    		CODE           	B2A0	0000	41
		_UARTstringCRLN		CODE           	AE16	0000	67
		_EraseScreen   		CODE           	B2C8	0000	41
		_UARTstringCRLN		CODE           	AF8A	0000	57
		_UARTchar      		CODE           	B030	0000	55
		_ClearUSART    		CODE           	B3F2	0000	19
		_ReadUSART     		CODE           	B334	0000	25
		_UARTchar_CONST		CODE           	AF50	0000	59
		_UARTcommandMen		CODE           	920C	0000	287

UART.c estimated size: 1121

Bluetooth.c
		_BluetoothConfi		CODE           	B404	0000	19
		_BlueConnected 		CODE           	B46C	0000	15
		_ResetBlue     		CODE           	997A	0000	227
		_WaitForIRsigna		CODE           	A674	0000	145
		_BluetoothIniti		CODE           	4C66	0000	2023
		_InitBluetooth 		CODE           	AA04	0000	119
		_UseBluetooth  		CODE           	01D0	0000	11935
		_EnterCommandMo		CODE           	8938	0000	349

Bluetooth.c estimated size: 14832

C:\Program Files (x86)\Microchip\xc8\v1.34\sources\common\ftdivl.c
		__tdiv_to_l_   		CODE           	819A	0000	423

C:\Program Files (x86)\Microchip\xc8\v1.34\sources\common\ftdivl.c estimated size: 423

Timer.c
		_InitTimer0    		CODE           	B416	0000	17
		_InitTimer1    		CODE           	B450	0000	15
		_InitTimer2    		CODE           	B442	0000	15
		_InitTimer3    		CODE           	B4AE	0000	11
		_InitTimers    		CODE           	B3A6	0000	21
		_SetTimer0     		CODE           	B4CC	0000	11
		_LEDTimerON    		CODE           	B3CE	0000	19
		_ResetTimer0   		CODE           	B4B8	0000	11
		_ResetTimer1   		CODE           	B4A4	0000	11
		_ResetTimer3   		CODE           	B4D6	0000	11

Timer.c estimated size: 142

C:\Program Files (x86)\Microchip\xc8\v1.34\sources\common\ftneg.c
		___ftneg       		CODE           	B162	0000	49

C:\Program Files (x86)\Microchip\xc8\v1.34\sources\common\ftneg.c estimated size: 49

interrupts.c
		_high_isr      		CODE           	0008	0000	1589
		_low_isr       		CODE           	0018	0000	437

interrupts.c estimated size: 2026

C:\Program Files (x86)\Microchip\xc8\v1.34\sources\common\Umul32.c
		___lmul        		CODE           	A912	0000	123

C:\Program Files (x86)\Microchip\xc8\v1.34\sources\common\Umul32.c estimated size: 123

C:\Program Files (x86)\Microchip\xc8\v1.34\sources\common\fldivl.c
		__div_to_l_    		CODE           	8340	0000	405

C:\Program Files (x86)\Microchip\xc8\v1.34\sources\common\fldivl.c estimated size: 405

C:\Program Files (x86)\Microchip\xc8\v1.34\sources\common\ftsub.c
		___ftsub       		CODE           	ACF6	0000	81

C:\Program Files (x86)\Microchip\xc8\v1.34\sources\common\ftsub.c estimated size: 81

C:\Program Files (x86)\Microchip\xc8\v1.34\sources\common\float.c
		___ftpack      		CODE           	90EC	0000	289

C:\Program Files (x86)\Microchip\xc8\v1.34\sources\common\float.c estimated size: 289

C:\Program Files (x86)\Microchip\xc8\v1.34\sources\common\awmod.c
		___awmod       		CODE           	A0BA	0000	181

C:\Program Files (x86)\Microchip\xc8\v1.34\sources\common\awmod.c estimated size: 181

RF.c
		_SendRF_wait   		CODE           	AE9A	0000	63
		_DisplayRF_Chan		CODE           	9CD8	0000	207
		_SendRF_Channel		CODE           	79C6	0000	601
		_SendRF        		CODE           	9884	0000	247

RF.c estimated size: 1118

C:\Program Files (x86)\Microchip\xc8\v1.34\sources\common\llmod.c
		___llmod       		CODE           	A21C	0000	165

C:\Program Files (x86)\Microchip\xc8\v1.34\sources\common\llmod.c estimated size: 165

Button.c
		_ReadPushButton		CODE           	B426	0000	15
		_ReadCodeButton		CODE           	ACA2	0000	85

Button.c estimated size: 100

C:\Program Files (x86)\Microchip\xc8\v1.34\sources\common\ftmul.c
		___ftmul       		CODE           	87CC	0000	365

C:\Program Files (x86)\Microchip\xc8\v1.34\sources\common\ftmul.c estimated size: 365

C:\Program Files (x86)\Microchip\xc8\v1.34\sources\common\isdigit.c
		_isdigit       		CODE           	B1C2	0000	47

C:\Program Files (x86)\Microchip\xc8\v1.34\sources\common\isdigit.c estimated size: 47

EEPROM.c
		_SetEEPROMdefau		CODE           	9448	0000	287
		_SetMemoryLong 		CODE           	978A	0000	251
		_SetMemoryChar 		CODE           	AF16	0000	59
		_EEPROM_UNLOCK 		CODE           	B364	0000	23
		_EEPROMinitiali		CODE           	B3BA	0000	21
		_ReadEEPROM_1By		CODE           	ABF4	0000	89
		_GetEEPROM1    		CODE           	9A5C	0000	221
		_GetEEPROM2    		CODE           	9E74	0000	203
		_WriteEEPROM_1B		CODE           	AB3E	0000	93
		_SetEEPROM1    		CODE           	8FC0	0000	301
		_SetEEPROM2    		CODE           	967C	0000	271
		_SyncEEPROMToGl		CODE           	7E1E	0000	463
		_SyncGlobalToEE		CODE           	A404	0000	161
		_GetMemoryLong 		CODE           	865C	0000	369
		_GetMemoryChar 		CODE           	B276	0000	43

EEPROM.c estimated size: 2855

C:\Program Files (x86)\Microchip\xc8\v1.34\sources\common\lwtoft.c
		___lwtoft      		CODE           	B21E	0000	45

C:\Program Files (x86)\Microchip\xc8\v1.34\sources\common\lwtoft.c estimated size: 45

C:\Program Files (x86)\Microchip\xc8\v1.34\sources\common\ftdiv.c
		___ftdiv       		CODE           	8A94	0000	339

C:\Program Files (x86)\Microchip\xc8\v1.34\sources\common\ftdiv.c estimated size: 339

C:\Program Files (x86)\Microchip\xc8\v1.34\sources\common\lltoft.c
		___lltoft      		CODE           	A816	0000	129

C:\Program Files (x86)\Microchip\xc8\v1.34\sources\common\lltoft.c estimated size: 129

shared
		i1_UARTchar    		CODE           	B1F0	0000	47
		_Conf2_ChannelB		MEDIUMCONST    	EC76	0000	20
		_Conf2_ChannelD		MEDIUMCONST    	EC89	0000	20
		_Conf1_ChannelD		MEDIUMCONST    	EDEC	0000	13
		_Conf1_ChannelE		MEDIUMCONST    	EDF8	0000	13
		_Conf1_ChannelF		MEDIUMCONST    	EE04	0000	13
		i1_UARTstring  		CODE           	B2F0	0000	39
		i2_cleanBuffer1		CODE           	AE58	0000	67
		_Conf1_Channels		MEDIUMCONST    	EE1E	0000	5
		__powers_      		MEDIUMCONST    	EB9A	0000	40
		_Conf2_ChannelB		MEDIUMCONST    	ECF3	0000	17
		_Conf2_ChannelD		MEDIUMCONST    	ED13	0000	17
		_Conf2_ChannelH		MEDIUMCONST    	EBFB	0000	22
		_Conf2_ChannelH		MEDIUMCONST    	EC10	0000	22
		_Conf2_ChannelH		MEDIUMCONST    	EC25	0000	22
		i2_ReadIRpin   		CODE           	B496	0000	15
		_dpowers       		MEDIUMCONST    	EB4B	0000	41
		_SYNTAX_ERR    		MEDIUMCONST    	EDDE	0000	15
		_Conf2_ChannelH		MEDIUMCONST    	ECC0	0000	18
		_Conf2_ChannelH		MEDIUMCONST    	ECD1	0000	18
		_Conf2_ChannelH		MEDIUMCONST    	ECE2	0000	18
		_PCBVersion    		MEDIUMCONST    	EE19	0000	6
		i1_BlueConnecte		CODE           	B488	0000	15
		i2_ResetTimer0 		CODE           	B4C2	0000	11
		_Conf2_Channels		MEDIUMCONST    	EE22	0000	5
		_FirmVersion   		MEDIUMCONST    	EE10	0000	10
		__npowers_     		MEDIUMCONST    	EB73	0000	40
		_Conf1_ChannelD		MEDIUMCONST    	ED93	0000	16
		_Conf1_ChannelE		MEDIUMCONST    	EDA2	0000	16
		_Conf1_ChannelF		MEDIUMCONST    	EDB1	0000	16
		i1_ReadUSART   		CODE           	B390	0000	23
		__initializatio		CODE           	9B38	0000	203
		_CRLN          		MEDIUMCONST    	EE2A	0000	4
		_ProjectName   		MEDIUMCONST    	EBE1	0000	27
		_Conf2_ChannelH		MEDIUMCONST    	ED33	0000	17
		_Conf2_ChannelH		MEDIUMCONST    	ED53	0000	17
		_Conf2_ChannelH		MEDIUMCONST    	ED73	0000	17
		i1_UARTstring_C		CODE           	B192	0000	49
		_Conf2_ChannelH		MEDIUMCONST    	EC3A	0000	21
		_Conf2_ChannelH		MEDIUMCONST    	EC4E	0000	21
		_Conf2_ChannelH		MEDIUMCONST    	EC62	0000	21
		_Conf2_ChannelB		MEDIUMCONST    	EDC0	0000	16
		_Conf2_ChannelD		MEDIUMCONST    	EDCF	0000	16
		_hexpowers     		MEDIUMCONST    	EBC1	0000	33
		_Conf2_ChannelB		MEDIUMCONST    	EC9C	0000	19
		_Conf2_ChannelD		MEDIUMCONST    	ECAE	0000	19
		_Conf2_ChannelB		MEDIUMCONST    	ED03	0000	17
		_Conf2_ChannelD		MEDIUMCONST    	ED23	0000	17
		i1_delayUS     		CODE           	AED8	0000	63
		_Conf2_ChannelH		MEDIUMCONST    	ED43	0000	17
		_Frequency     		MEDIUMCONST    	EE26	0000	5
		_Conf2_ChannelH		MEDIUMCONST    	ED63	0000	17
		_Conf2_ChannelH		MEDIUMCONST    	ED83	0000	17
		i1_UARTchar_CON		CODE           	B130	0000	51

shared estimated size: 1364

C:\Program Files (x86)\Microchip\xc8\v1.34\sources\common\altoft.c
		___altoft      		CODE           	A362	0000	163

C:\Program Files (x86)\Microchip\xc8\v1.34\sources\common\altoft.c estimated size: 163

ADC.c
		_InternalADC_Re		CODE           	A2C0	0000	163
		_ReadVoltage   		CODE           	A542	0000	159
		_VoltageDivider		CODE           	B4EA	0000	3
		_InitADC       		CODE           	B37A	0000	23
		_ResetADC      		CODE           	B47A	0000	15

ADC.c estimated size: 363

C:\Program Files (x86)\Microchip\xc8\v1.34\sources\common\awdiv.c
		___awdiv       		CODE           	9C08	0000	209

C:\Program Files (x86)\Microchip\xc8\v1.34\sources\common\awdiv.c estimated size: 209

MISC.c
		_Round         		CODE           	AA7A	0000	103
		_StringContains		CODE           	8E86	0000	315
		_BufferCopy    		CODE           	A704	0000	139
		_StringContains		CODE           	7FEC	0000	431
		_GetStringAfter		CODE           	932A	0000	287
		_cleanBuffer   		CODE           	AB9A	0000	91
		_IsAlphaNumeric		CODE           	AFFA	0000	55
		_cleanBuffer16b		CODE           	AAE0	0000	95
		_lowercaseStrin		CODE           	AD8E	0000	69
		_delayUS       		CODE           	AC4C	0000	87
		_IsAlphaNumeric		CODE           	B066	0000	53
		_Reverse_Byte  		CODE           	A004	0000	183
		_IsLetter      		CODE           	B0CC	0000	51
		_Reverse_4Byte 		CODE           	3FE8	0000	3199
		_IsNumber      		CODE           	B316	0000	31
		_StringAddEqual		CODE           	7C1E	0000	513
		_StringMatch   		CODE           	A98C	0000	121
		_GetNumber     		CODE           	6586	0000	1159
		_IsCharacter   		CODE           	B34C	0000	25
		_StringMatchCas		CODE           	A5E0	0000	149
		_GetNumberUnsig		CODE           	6A0C	0000	1119
		_lowercaseChar 		CODE           	B24A	0000	45

MISC.c estimated size: 8320

IR.c
		_DecodeNEC     		CODE           	A16E	0000	175
		_InitIR        		CODE           	AD46	0000	73
		_EncodeNEC     		CODE           	8D38	0000	335
		_UseIRCode     		CODE           	7196	0000	731
		_IRrawToNEC    		CODE           	6E6A	0000	813
		_ReadIRpin     		CODE           	B45E	0000	15
		_SendNEC_wait  		CODE           	A4A4	0000	159
		_SendNEC_bytes 		CODE           	A78E	0000	137
		_CheckReceiving		CODE           	B3E0	0000	19

IR.c estimated size: 2457

C:\Program Files (x86)\Microchip\xc8\v1.34\sources\common\lldiv.c
		___lldiv       		CODE           	9F3E	0000	199

C:\Program Files (x86)\Microchip\xc8\v1.34\sources\common\lldiv.c estimated size: 199

user.c
		_InitApp       		CODE           	ADD2	0000	69
		_Init_System   		CODE           	84D4	0000	393

user.c estimated size: 462

C:\Program Files (x86)\Microchip\xc8\v1.34\sources\common\doprnt.c
		_scale         		CODE           	6082	0000	1285
		_sprintf       		CODE           	306E	0000	3963
		_fround        		CODE           	7470	0000	729

C:\Program Files (x86)\Microchip\xc8\v1.34\sources\common\doprnt.c estimated size: 5977

C:\Program Files (x86)\Microchip\xc8\v1.34\sources\common\fttol.c
		___fttol       		CODE           	8BE6	0000	339

C:\Program Files (x86)\Microchip\xc8\v1.34\sources\common\fttol.c estimated size: 339

main.c
		_main          		CODE           	5A70	0000	1555

main.c estimated size: 1555

C:\Program Files (x86)\Microchip\xc8\v1.34\sources\common\Umul16.c
		___wmul        		CODE           	AFC2	0000	57

C:\Program Files (x86)\Microchip\xc8\v1.34\sources\common\Umul16.c estimated size: 57

system.c
		_ConfigureOscil		CODE           	B4EC	0000	3

system.c estimated size: 3

C:\Program Files (x86)\Microchip\xc8\v1.34\sources\common\ftadd.c
		___ftadd       		CODE           	7748	0000	639

C:\Program Files (x86)\Microchip\xc8\v1.34\sources\common\ftadd.c estimated size: 639

